(dp1
S'id_to_char'
p2
(dp3
I0
Ve
sI1
Vt
sI2
Va
sI3
Vo
sI4
Vi
sI5
Vs
sI6
Vr
sI7
Vn
sI8
Vh
sI9
Vd
sI10
Vl
sI11
Vc
sI12
Vu
sI13
Vw
sI14
Vm
sI15
Vy
sI16
Vf
sI17
Vg
sI18
Vp
sI19
Vb
sI20
Vv
sI21
Vk
sI22
Vx
sI23
Vz
sI24
Vj
sI25
V0
sI26
V1
sI27
Vq
sI28
V2
sI29
V5
sI30
V3
sI31
V4
sI32
V9
sI33
V7
sI34
V6
sI35
V8
sI36
V?
ssS'id_to_tag'
p4
(dp5
I0
VO
sI1
VS-FT
p6
sI2
VS-NAT
p7
sI3
VS-NBH
p8
ssS'id_to_word'
p9
(dp10
I0
S'<UNK>'
p11
sI1
Vthe
p12
sI2
Vand
p13
sI3
Vi
sI4
Vto
p14
sI5
Va
sI6
Vwas
p15
sI7
Vis
p16
sI8
Vfor
p17
sI9
Vit
p18
sI10
Vof
p19
sI11
Vin
p20
sI12
Vfood
p21
sI13
Vmy
p22
sI14
Vthis
p23
sI15
Vwe
p24
sI16
Vthat
p25
sI17
Vnot
p26
sI18
Vwith
p27
sI19
Vbut
p28
sI20
Von
p29
sI21
Vgood
p30
sI22
Vhad
p31
sI23
Vgreat
p32
sI24
Vthey
p33
sI25
Vwere
p34
sI26
Vyou
p35
sI27
Vhave
p36
sI28
Vservice
p37
sI29
Vplace
p38
sI30
Vbe
p39
sI31
Vat
p40
sI32
Vare
p41
sI33
Vour
p42
sI34
Vvery
p43
sI35
Vas
p44
sI36
Vso
p45
sI37
Vthere
p46
sI38
Vtime
p47
sI39
Vhere
p48
sI40
Vout
p49
sI41
Vdo
p50
sI42
Vif
p51
sI43
Vall
p52
sI44
Vwill
p53
sI45
Vget
p54
sI46
Vjust
p55
sI47
Vme
p56
sI48
Vdid
p57
sI49
Vlike
p58
sI50
Vstaff
p59
sI51
Vgo
p60
sI52
Vwould
p61
sI53
Van
p62
sI54
Vwhen
p63
sI55
Vback
p64
sI56
Vabout
p65
sI57
Vus
p66
sI58
Vhe
p67
sI59
Vor
p68
sI60
Vfrom
p69
sI61
Vorder
p70
sI62
Vup
p71
sI63
Vshe
p72
sI64
Vone
p73
sI65
Vrestaurant
p74
sI66
Vno
p75
sI67
Vtheir
p76
sI68
Vbest
p77
sI69
Vbeen
p78
sI70
Vafter
p79
sI71
Vexperience
p80
sI72
Vonly
p81
sI73
Valways
p82
sI74
Vwell
p83
sI75
Vnice
p84
sI76
Vreally
p85
sI77
Vnever
p86
sI78
Veven
p87
sI79
Vserver
p88
sI80
Vwhat
p89
sI81
Vordered
p90
sI82
Vyour
p91
sI83
Vcame
p92
sI84
Vlove
p93
sI85
Vby
p94
sI86
Vcan
p95
sI87
Vpizza
p96
sI88
Vbar
p97
sI89
Vchicken
p98
sI90
Vbecause
p99
sI91
Vmore
p100
sI92
Vtoo
p101
sI93
Vfriendly
p102
sI94
Vover
p103
sI95
Vwait
p104
sI96
Vatmosphere
p105
sI97
Vsome
p106
sI98
Vgot
p107
sI99
Vhas
p108
sI100
Vmanager
p109
sI101
Vagain
p110
sI102
Vnight
p111
sI103
Vother
p112
sI104
Vcharlotte
p113
sI105
Veat
p114
sI106
Vlocation
p115
sI107
Ve
sI108
Vmenu
p116
sI109
Vsaid
p117
sI110
Vamazing
p118
sI111
Vcome
p119
sI112
Vthan
p120
sI113
Vwhich
p121
sI114
Vthem
p122
sI115
Vfirst
p123
sI116
Vtable
p124
sI117
Vbetter
p125
sI118
Vcould
p126
sI119
Vmake
p127
sI120
Vwent
p128
sI121
Vthen
p129
sI122
Vminutes
p130
sI123
Vasked
p131
sI124
Vsalad
p132
sI125
Vwaitress
p133
sI126
Vdrinks
p134
sI127
Vher
p135
sI128
Vgoing
p136
sI129
Valso
p137
sI130
Vbeer
p138
sI131
Vdefinitely
p139
sI132
Vdelicious
p140
sI133
Vwho
p141
sI134
Vknow
p142
sI135
Vexcellent
p143
sI136
Vmade
p144
sI137
Vdinner
p145
sI138
Vbefore
p146
sI139
Vever
p147
sI140
Vrecommend
p148
sI141
Vlunch
p149
sI142
Vwhile
p150
sI143
Vpeople
p151
sI144
Vhow
p152
sI145
Vbad
p153
sI146
Vsay
p154
sI147
Vawesome
p155
sI148
Vhour
p156
sI149
Vfresh
p157
sI150
Vsteak
p158
sI151
Vtry
p159
sI152
V2
sI153
V3
sI154
Vmuch
p160
sI155
Vstill
p161
sI156
Vway
p162
sI157
V5
sI158
Vmeal
p163
sI159
Voff
p164
sI160
Vtold
p165
sI161
Varound
p166
sI162
Veverything
p167
sI163
Vtwo
p168
sI164
Vany
p169
sI165
Varea
p170
sI166
Vbeing
p171
sI167
Vbusy
p172
sI168
Vlittle
p173
sI169
Vcustomer
p174
sI170
Vpretty
p175
sI171
Vcheese
p176
sI172
Vnew
p177
sI173
Vevery
p178
sI174
Vgive
p179
sI175
Vsure
p180
sI176
V1
sI177
Vask
p181
sI178
Vfamily
p182
sI179
Vmost
p183
sI180
Vtimes
p184
sI181
Vsandwich
p185
sI182
Vselection
p186
sI183
Vtake
p187
sI184
V10
p188
sI185
Vdown
p189
sI186
Vlong
p190
sI187
Vthough
p191
sI188
Vwings
p192
sI189
Vwork
p193
sI190
Vquality
p194
sI191
Vsushi
p195
sI192
Vtook
p196
sI193
Vwant
p197
sI194
Vworth
p198
sI195
Vaway
p199
sI196
Vlast
p200
sI197
Vam
p201
sI198
Vclean
p202
sI199
Vhowever
p203
sI200
Vmany
p204
sI201
Vprices
p205
sI202
Vshrimp
p206
sI203
Vseated
p207
sI204
Vanother
p208
sI205
Vright
p209
sI206
Vdrink
p210
sI207
Vnothing
p211
sI208
Vside
p212
sI209
Vprice
p213
sI210
Vfree
p214
sI211
Vhis
p215
sI212
Vwife
p216
sI213
Vnow
p217
sI214
V4
sI215
Vshould
p218
sI216
Vvisit
p219
sI217
V20
p220
sI218
Vday
p221
sI219
Vtop
p222
sI220
Vyears
p223
sI221
Vfries
p224
sI222
Vhot
p225
sI223
Vbrought
p226
sI224
Vmoney
p227
sI225
Vsmall
p228
sI226
Vcoming
p229
sI227
Vcooked
p230
sI228
Vfast
p231
sI229
Vthink
p232
sI230
Vcalled
p233
sI231
Vcold
p234
sI232
Vcustomers
p235
sI233
Vfew
p236
sI234
Vsame
p237
sI235
Vserved
p238
sI236
Vusually
p239
sI237
Vlarge
p240
sI238
Vrude
p241
sI239
Vstars
p242
sI240
Vyoe
p243
sI241
Vdifferent
p244
sI242
Veveryone
p245
sI243
Vsince
p246
sI244
Vice
p247
sI245
Vinto
p248
sI246
Vbusiness
p249
sI247
Vhalf
p250
sI248
Vhotel
p251
sI249
Vok
p252
sI250
Vbit
p253
sI251
Vroom
p254
sI252
Vdoes
p255
sI253
Vonce
p256
sI254
Voptions
p257
sI255
Vsauce
p258
sI256
Vsomething
p259
sI257
Vtaste
p260
sI258
Vwhere
p261
sI259
Vbread
p262
sI260
Vdecent
p263
sI261
Vtasted
p264
sI262
Vdisappointed
p265
sI263
Vwaited
p266
sI264
Vwaiting
p267
sI265
Vdone
p268
sI266
Vfavorite
p269
sI267
Vboth
p270
sI268
Vhim
p271
sI269
Vspecial
p272
sI270
Vhorrible
p273
sI271
Vmanagement
p274
sI272
Vabsolutely
p275
sI273
Vdining
p276
sI274
Vsat
p277
sI275
Vtoday
p278
sI276
Vwonderful
p279
sI277
Venjoy
p280
sI278
Vfried
p281
sI279
Vnext
p282
sI280
Voverall
p283
sI281
Vseemed
p284
sI282
Vuntil
p285
sI283
Vcare
p286
sI284
Vkids
p287
sI285
Vworst
p288
sI286
Vhard
p289
sI287
Vhusband
p290
sI288
Vleft
p291
sI289
Vprobably
p292
sI290
Vsee
p293
sI291
Vwaiter
p294
sI292
Vwine
p295
sI293
Vwrong
p296
sI294
Vbig
p297
sI295
Vfull
p298
sI296
Vgroup
p299
sI297
Vquickly
p300
sI298
Vreview
p301
sI299
Vfun
p302
sI300
Vhouse
p303
sI301
Vsomeone
p304
sI302
Venjoyed
p305
sI303
Venough
p306
sI304
Vhome
p307
sI305
Vkitchen
p308
sI306
Vleave
p309
sI307
Vtables
p310
sI308
Vterrible
p311
sI309
Vtha
p312
sI310
Vweek
p313
sI311
Vclose
p314
sI312
Vhaving
p315
sI313
Vparking
p316
sI314
Vpoor
p317
sI315
Vstore
p318
sI316
Vsweet
p319
sI317
Vca
p320
sI318
Vfriends
p321
sI319
Vits
p322
sI320
Vperson
p323
sI321
Vwanted
p324
sI322
Vcream
p325
sI323
Velse
p326
sI324
Vslow
p327
sI325
Vwater
p328
sI326
Valmost
p329
sI327
Vanything
p330
sI328
Vcheck
p331
sI329
Vloud
p332
sI330
Vperfect
p333
sI331
Vattentive
p334
sI332
Vhelpful
p335
sI333
Vleast
p336
sI334
Vplaces
p337
sI335
Vput
p338
sI336
Vready
p339
sI337
Vtried
p340
sI338
V15
p341
sI339
Veating
p342
sI340
Vfind
p343
sI341
Vhostess
p344
sI342
Vordering
p345
sI343
Vpay
p346
sI344
Vproblem
p347
sI345
Vcake
p348
sI346
Vdessert
p349
sI347
Vhigh
p350
sI348
Vpast
p351
sI349
Vreviews
p352
sI350
V30
p353
sI351
Vburger
p354
sI352
Vespecially
p355
sI353
Vevening
p356
sI354
Vinside
p357
sI355
Vstar
p358
sI356
Vwhy
p359
sI357
Vate
p360
sI358
Vbill
p361
sI359
Vduring
p362
sI360
Vless
p363
sI361
Vlooking
p364
sI362
Vend
p365
sI363
Ventire
p366
sI364
Vhappy
p367
sI365
Vmeat
p368
sI366
Vold
p369
sI367
Vtrying
p370
sI368
Vbreakfast
p371
sI369
Vbring
p372
sI370
Vmust
p373
sI371
Vquick
p374
sI372
Vspot
p375
sI373
Vdelivery
p376
sI374
Vextremely
p377
sI375
Vfantastic
p378
sI376
Vkind
p379
sI377
Vloved
p380
sI378
Vpart
p381
sI379
Vplate
p382
sI380
Vsalmon
p383
sI381
Vsuper
p384
sI382
Vthing
p385
sI383
Vfound
p386
sI384
Vpricey
p387
sI385
Vservers
p388
sI386
Vtasty
p389
sI387
Vwithout
p390
sI388
Vfar
p391
sI389
Vname
p392
sI390
Voutside
p393
sI391
Vportions
p394
sI392
V7
sI393
Vgetting
p395
sI394
Vhighly
p396
sI395
Vkeep
p397
sI396
Vrestaurants
p398
sI397
Vsecond
p399
sI398
Vwalk
p400
sI399
Vdate
p401
sI400
Vdoor
p402
sI401
Vfeel
p403
sI402
Vfront
p404
sI403
Vhead
p405
sI404
Vl
sI405
Vmaybe
p406
sI406
Vparty
p407
sI407
Vreturn
p408
sI408
Vthank
p409
sI409
Vactually
p410
sI410
Vfish
p411
sI411
Vgave
p412
sI412
Vhuge
p413
sI413
Vkept
p414
sI414
Vlooked
p415
sI415
Vsit
p416
sI416
Vwo
p417
sI417
Vemployees
p418
sI418
Vjob
p419
sI419
Vlocal
p420
sI420
Vpasta
p421
sI421
Vstarted
p422
sI422
Vtown
p423
sI423
Vhours
p424
sI424
Vitalian
p425
sI425
Vlater
p426
sI426
Vopen
p427
sI427
Vwarm
p428
sI428
Varrived
p429
sI429
Vcharged
p430
sI430
Vdecided
p431
sI431
Vflavor
p432
sI432
Vlook
p433
sI433
Vlow
p434
sI434
Vmall
p435
sI435
Vneed
p436
sI436
Vneeds
p437
sI437
Vorders
p438
sI438
Vpoint
p439
sI439
Vthree
p440
sI440
Vtip
p441
sI441
Vwhole
p442
sI442
V8
sI443
Vexpect
p443
sI444
Vexpected
p444
sI445
Vlot
p445
sI446
Vtea
p446
sI447
Vtell
p447
sI448
Vthings
p448
sI449
Vanyone
p449
sI450
Vcity
p450
sI451
Vclosed
p451
sI452
Vcool
p452
sI453
Vempty
p453
sI454
Vlet
p454
sI455
Vreservation
p455
sI456
Vrooms
p456
sI457
Vsaturday
p457
sI458
Vthese
p458
sI459
Vbrunch
p459
sI460
Vburgers
p460
sI461
Vcall
p461
sI462
Vcourse
p462
sI463
Vdish
p463
sI464
Vfelt
p464
sI465
Vothers
p465
sI466
Vreceived
p466
sI467
Vsoon
p467
sI468
Vdays
p468
sI469
Vgiven
p469
sI470
Vlate
p470
sI471
Vmusic
p471
sI472
Vthought
p472
sI473
Vago
p473
sI474
Vawful
p474
sI475
Vbirthday
p475
sI476
Vbuffet
p476
sI477
Vcrab
p477
sI478
Vdishes
p478
sI479
Vguess
p479
sI480
Vpaid
p480
sI481
Vplenty
p481
sI482
Vprepared
p482
sI483
Vseveral
p483
sI484
Vused
p484
sI485
Vvisited
p485
sI486
Vyet
p486
sI487
Vamount
p487
sI488
Vappetizer
p488
sI489
Vexpensive
p489
sI490
Vfinally
p490
sI491
Vfrench
p491
sI492
Voffer
p492
sI493
Vperfectly
p493
sI494
Vphone
p494
sI495
Vquite
p495
sI496
Vseems
p496
sI497
Vserve
p497
sI498
Vthanks
p498
sI499
Vturned
p499
sI500
Vuptown
p500
sI501
Vwish
p501
sI502
Valong
p502
sI503
Vbowling
p503
sI504
Vcomes
p504
sI505
Vfact
p505
sI506
Vitems
p506
sI507
Vlady
p507
sI508
Vlobster
p508
sI509
Voh
p509
sI510
Vokay
p510
sI511
Vrest
p511
sI512
Vsubway
p512
sI513
Vworking
p513
sI514
Vbarely
p514
sI515
Vdoing
p515
sI516
Vdrive
p516
sI517
Vextra
p517
sI518
Vglass
p518
sI519
Vindian
p519
sI520
Vline
p520
sI521
Vmakes
p521
sI522
Vmind
p522
sI523
Vred
p523
sI524
Vseating
p524
sI525
Vseem
p525
sI526
Vtacos
p526
sI527
Vweekend
p527
sI528
V9
sI529
Vdry
p528
sI530
Vfriday
p529
sI531
Vfriend
p530
sI532
Vgets
p531
sI533
Vhost
p532
sI534
Vmins
p533
sI535
Voffered
p534
sI536
Vpatio
p535
sI537
Vpotatoes
p536
sI538
Vribs
p537
sI539
Vsandwiches
p538
sI540
Vsaying
p539
sI541
Vsunday
p540
sI542
V6
sI543
Vable
p541
sI544
Vattitude
p542
sI545
Vbbq
p543
sI546
Veither
p544
sI547
Vmaking
p545
sI548
Vmight
p546
sI549
Vreasonable
p547
sI550
Vsitting
p548
sI551
Vsteaks
p549
sI552
Vthrough
p550
sI553
V45
p551
sI554
Valthough
p552
sI555
Vguys
p553
sI556
Vmac
p554
sI557
Vmin
p555
sI558
Vneeded
p556
sI559
Vown
p557
sI560
Vplates
p558
sI561
Vreal
p559
sI562
Vreason
p560
sI563
Vshort
p561
sI564
Vsick
p562
sI565
Vstop
p563
sI566
Vsuch
p564
sI567
Vther
p565
sI568
Vtreat
p566
sI569
Vwalked
p567
sI570
Vavailable
p568
sI571
Vbeers
p569
sI572
Vbelieve
p570
sI573
Vcoffee
p571
sI574
Vcook
p572
sI575
Vestablishment
p573
sI576
Vlist
p574
sI577
Voften
p575
sI578
Vsides
p576
sI579
Vsoup
p577
sI580
Vspeak
p578
sI581
Vspicy
p579
sI582
Vtreated
p580
sI583
Vwatch
p581
sI584
Vbang
p582
sI585
Vbartender
p583
sI586
Vcenter
p584
sI587
Vcost
p585
sI588
Vguy
p586
sI589
Vhair
p587
sI590
Vlettuce
p588
sI591
Vowner
p589
sI592
Vsports
p590
sI593
Vstay
p591
sI594
Vtalking
p592
sI595
Vunderstand
p593
sI596
Vvisiting
p594
sI597
Vwaste
p595
sI598
Vauthentic
p596
sI599
Vchips
p597
sI600
Vchoices
p598
sI601
Vcut
p599
sI602
Venvironment
p600
sI603
Vgrits
p601
sI604
Vissue
p602
sI605
Vleaving
p603
sI606
Vlife
p604
sI607
Vliterally
p605
sI608
Vnights
p606
sI609
Vpleasant
p607
sI610
Vserving
p608
sI611
Vstopped
p609
sI612
Vstores
p610
sI613
Vthai
p611
sI614
Vthose
p612
sI615
Vwalking
p613
sI616
Vyes
p614
sI617
Vbland
p615
sI618
Vchange
p616
sI619
Ventree
p617
sI620
Vfine
p618
sI621
Vimpressed
p619
sI622
Vlooks
p620
sI623
Vmouth
p621
sI624
Voysters
p622
sI625
Vpolite
p623
sI626
Vpork
p624
sI627
Vseat
p625
sI628
Vspecials
p626
sI629
Vthee
p627
sI630
Vyoung
p628
sI631
Vcorn
p629
sI632
Vdue
p630
sI633
Veggs
p631
sI634
Vfloor
p632
sI635
Vhonestly
p633
sI636
Vincredible
p634
sI637
Vmeals
p635
sI638
Vmedium
p636
sI639
Vpotato
p637
sI640
Vrefill
p638
sI641
Vsaw
p639
sI642
Vwaiters
p640
sI643
Vyear
p641
sI644
Vbeef
p642
sI645
Vcrowd
p643
sI646
Vdecor
p644
sI647
Vguests
p645
sI648
Vhealthy
p646
sI649
Vobviously
p647
sI650
Vphenomenal
p648
sI651
Vpizzas
p649
sI652
Vrare
p650
sI653
Vsalty
p651
sI654
Vseafood
p652
sI655
Vsoggy
p653
sI656
Vclub
p654
sI657
Vcup
p655
sI658
Vdirty
p656
sI659
Vdressing
p657
sI660
Vgame
p658
sI661
Vgrilled
p659
sI662
Vmay
p660
sI663
Vnumber
p661
sI664
Voutstanding
p662
sI665
Vpaying
p663
sI666
Vpersonally
p664
sI667
Vsalads
p665
sI668
Vset
p666
sI669
Vstanding
p667
sI670
Vsub
p668
sI671
Vvegetables
p669
sI672
Vacross
p670
sI673
Vbacon
p671
sI674
Vcard
p672
sI675
Vchocolate
p673
sI676
Vdaughter
p674
sI677
Vetc
p675
sI678
Vfour
p676
sI679
Vhand
p677
sI680
Vimmediately
p678
sI681
Vincluding
p679
sI682
Vjaso
p680
sI683
Vman
p681
sI684
Voffering
p682
sI685
Voutdoor
p683
sI686
Vpacked
p684
sI687
Vparticular
p685
sI688
Vpick
p686
sI689
Vrice
p687
sI690
Vridiculous
p688
sI691
Vroll
p689
sI692
Vrolls
p690
sI693
Vsalsa
p691
sI694
Vsouth
p692
sI695
Vwow
p693
sI696
V40
p694
sI697
Vbathroom
p695
sI698
Vcannot
p696
sI699
Vchain
p697
sI700
Vchef
p698
sI701
Vcorrect
p699
sI702
Vcourt
p700
sI703
Vdespite
p701
sI704
Vdog
p702
sI705
Vexperiences
p703
sI706
Vface
p704
sI707
Vfilet
p705
sI708
Vfinished
p706
sI709
Vfix
p707
sI710
Vgirl
p708
sI711
Vincorrect
p709
sI712
Vnotch
p710
sI713
Vplaced
p711
sI714
Vreturning
p712
sI715
Vs
sI716
Vseen
p713
sI717
Vsometimes
p714
sI718
Vt
sI719
Vtaken
p715
sI720
Vtalk
p716
sI721
Vvariety
p717
sI722
Vwaffle
p718
sI723
Vworld
p719
sI724
V12
p720
sI725
Vapologize
p721
sI726
Vbehind
p722
sI727
Vdeli
p723
sI728
Vearly
p724
sI729
Vegg
p725
sI730
Vexceptional
p726
sI731
Vgreeted
p727
sI732
Vknowledgeable
p728
sI733
Vlocated
p729
sI734
Vlocations
p730
sI735
Vlots
p731
sI736
Vmanagers
p732
sI737
Vmean
p733
sI738
Vmyself
p734
sI739
Vnasty
p735
sI740
Vnor
p736
sI741
Vpickles
p737
sI742
Vplease
p738
sI743
Vportion
p739
sI744
Vppl
p740
sI745
Vprofessional
p741
sI746
Vreturned
p742
sI747
Vtype
p743
sI748
Vunder
p744
sI749
Vaverage
p745
sI750
Vbeautiful
p746
sI751
Vbeyond
p747
sI752
Vbox
p748
sI753
Vconversation
p749
sI754
Vdeal
p750
sI755
Vgluten
p751
sI756
Vgoes
p752
sI757
Vignored
p753
sI758
Vlive
p754
sI759
Vmonths
p755
sI760
Vnuts
p756
sI761
Vplus
p757
sI762
Vsimply
p758
sI763
Vspend
p759
sI764
Vspent
p760
sI765
Vstreet
p761
sI766
Vstuff
p762
sI767
Vstyle
p763
sI768
Vtotally
p764
sI769
Vupscale
p765
sI770
V0
sI771
V24
p766
sI772
Vambiance
p767
sI773
Vappetizers
p768
sI774
Vattempt
p769
sI775
Vattention
p770
sI776
Vbother
p771
sI777
Vbottom
p772
sI778
Vcompletely
p773
sI779
Vcourteous
p774
sI780
Vdelivered
p775
sI781
Vdip
p776
sI782
Vdont
p777
sI783
Veasy
p778
sI784
Veaten
p779
sI785
Vexpecting
p780
sI786
Vfan
p781
sI787
Vfive
p782
sI788
Vgiving
p783
sI789
Vgrill
p784
sI790
Vham
p785
sI791
Vhappen
p786
sI792
Vhappened
p787
sI793
Vheard
p788
sI794
Vheat
p789
sI795
Vhelp
p790
sI796
Vjordan
p791
sI797
Vmarket
p792
sI798
Vmovie
p793
sI799
Vnoticed
p794
sI800
Vpanera
p795
sI801
Vpm
p796
sI802
Vprime
p797
sI803
Vproperly
p798
sI804
Vraw
p799
sI805
Vshop
p800
sI806
Vshot
p801
sI807
Vsilverware
p802
sI808
Vsimple
p803
sI809
Vsingle
p804
sI810
Vsurprise
p805
sI811
Vsurprised
p806
sI812
Vten
p807
sI813
Vthinking
p808
sI814
Vtwice
p809
sI815
Vunfortunately
p810
sI816
Vadditional
p811
sI817
Vadvertised
p812
sI818
Valready
p813
sI819
Vapologized
p814
sI820
Vbased
p815
sI821
Vbetween
p816
sI822
Vbite
p817
sI823
Vboyfriend
p818
sI824
Vchance
p819
sI825
Vchanged
p820
sI826
Vchecked
p821
sI827
Vchecking
p822
sI828
Vchewy
p823
sI829
Vchoice
p824
sI830
Vconsistent
p825
sI831
Vcouple
p826
sI832
Vemployee
p827
sI833
Vflavors
p828
sI834
Vfuture
p829
sI835
Vgravy
p830
sI836
Vhigher
p831
sI837
Vknew
p832
sI838
Vlimited
p833
sI839
Vmeans
p834
sI840
Vmediocre
p835
sI841
Vmention
p836
sI842
Vmistake
p837
sI843
Vnone
p838
sI844
Vonline
p839
sI845
Vpulled
p840
sI846
Vrating
p841
sI847
Vremember
p842
sI848
Vspace
p843
sI849
Vspinach
p844
sI850
Vstart
p845
sI851
Vtender
p846
sI852
Vturkey
p847
sI853
Vupon
p848
sI854
Vw
sI855
Vwedding
p849
sI856
Vwha
p850
sI857
Vwrite
p851
sI858
V00
p852
sI859
V50
p853
sI860
Vadded
p854
sI861
Vanywhere
p855
sI862
Vblackened
p856
sI863
Vclearly
p857
sI864
Vcomplaint
p858
sI865
Vcookie
p859
sI866
Velsewhere
p860
sI867
Ventrees
p861
sI868
Veverywhere
p862
sI869
Vfacility
p863
sI870
Vhands
p864
sI871
Vhut
p865
sI872
Vmonday
p866
sI873
Vnc
p867
sI874
Vnear
p868
sI875
Vnote
p869
sI876
Vpriced
p870
sI877
Vran
p871
sI878
Vrib
p872
sI879
Vruby
p873
sI880
Vseats
p874
sI881
Vshopping
p875
sI882
Vtrip
p876
sI883
Vtruly
p877
sI884
Vunprofessional
p878
sI885
Vworked
p879
sI886
Vworks
p880
sI887
Vworse
p881
sI888
V1st
p882
sI889
V25
p883
sI890
Vasparagus
p884
sI891
Vbuilding
p885
sI892
Vchoose
p886
sI893
Vcurry
p887
sI894
Vflavorful
p888
sI895
Vhope
p889
sI896
Vim
p890
sI897
Vingredients
p891
sI898
Vissues
p892
sI899
Vmessed
p893
sI900
Vmiss
p894
sI901
Vmoved
p895
sI902
Voccasions
p896
sI903
Vpesto
p897
sI904
Vplan
p898
sI905
Vrecently
p899
sI906
Vregular
p900
sI907
Vribeye
p901
sI908
Vrun
p902
sI909
Vsatisfied
p903
sI910
Vsays
p904
sI911
Vtastes
p905
sI912
Vteam
p906
sI913
Vtonight
p907
sI914
Vtotal
p908
sI915
Vtuesday
p909
sI916
Vyol
p910
sI917
Vyummy
p911
sI918
Vanniversary
p912
sI919
Vapology
p913
sI920
Vbomb
p914
sI921
Vcajun
p915
sI922
Vchris
p916
sI923
Vclosing
p917
sI924
Vcocktails
p918
sI925
Vconsidering
p919
sI926
Vcraft
p920
sI927
Vdifficult
p921
sI928
Vdollars
p922
sI929
Vevent
p923
sI930
Vexpectations
p924
sI931
Vexplained
p925
sI932
Vfair
p926
sI933
Vforever
p927
sI934
Vgames
p928
sI935
Vhandle
p929
sI936
Vhang
p930
sI937
Vhear
p931
sI938
Vhit
p932
sI939
Vhooters
p933
sI940
Vhungry
p934
sI941
Vlanes
p935
sI942
Vlevel
p936
sI943
Vmeats
p937
sI944
Vnobody
p938
sI945
Vperfection
p939
sI946
Vramen
p940
sI947
Vrate
p941
sI948
Vreading
p942
sI949
Vresturant
p943
sI950
Vrunning
p944
sI951
Vrush
p945
sI952
Vsausage
p946
sI953
Vscallops
p947
sI954
Vsize
p948
sI955
Vskating
p949
sI956
Vsliders
p950
sI957
Vsmiling
p951
sI958
Vsmoked
p952
sI959
Vsorry
p953
sI960
Vthru
p954
sI961
Vtoilet
p955
sI962
Vtomato
p956
sI963
Vupset
p957
sI964
Vuse
p958
sI965
Vwaitresses
p959
sI966
Vyourself
p960
sI967
Vzero
p961
sI968
V16
p962
sI969
V2nd
p963
sI970
V95
p964
sI971
Vahead
p965
sI972
Valley
p966
sI973
Vasking
p967
sI974
Vbaked
p968
sI975
Vbed
p969
sI976
Vbrewery
p970
sI977
Vcalamari
p971
sI978
Vcalling
p972
sI979
Vcheap
p973
sI980
Vchose
p974
sI981
Vcomplete
p975
sI982
Vconvenient
p976
sI983
Vdesert
p977
sI984
Vdesk
p978
sI985
Vdj
p979
sI986
Veasily
p980
sI987
Vforget
p981
sI988
Vgeneric
p982
sI989
Vglad
p983
sI990
Vinformed
p984
sI991
Vinstead
p985
sI992
Vinteresting
p986
sI993
Vlight
p987
sI994
Vlost
p988
sI995
Vn
sI996
Vnegative
p989
sI997
Voil
p990
sI998
Vovercooked
p991
sI999
Vp
sI1000
Vpepper
p992
sI1001
Vrefills
p993
sI1002
Vsave
p994
sI1003
Vsh
p995
sI1004
Vshowed
p996
sI1005
Vsign
p997
sI1006
Vsomewhere
p998
sI1007
Vspoke
p999
sI1008
Vstale
p1000
sI1009
Vstayed
p1001
sI1010
Vstrong
p1002
sI1011
Vstuffed
p1003
sI1012
Vtogether
p1004
sI1013
Vtraditional
p1005
sI1014
Vundercooked
p1006
sI1015
Vunique
p1007
sI1016
Vvalue
p1008
sI1017
Vvenue
p1009
sI1018
Vweeks
p1010
sI1019
Vwhite
p1011
sI1020
Vyesterday
p1012
sI1021
Vbasic
p1013
sI1022
Vbutter
p1014
sI1023
Vcancel
p1015
sI1024
Vcause
p1016
sI1025
Vcomplain
p1017
sI1026
Vcounter
p1018
sI1027
Vcountry
p1019
sI1028
Vcozy
p1020
sI1029
Vcrispy
p1021
sI1030
Vcrust
p1022
sI1031
Vdamn
p1023
sI1032
Vdeserve
p1024
sI1033
Vdim
p1025
sI1034
Vdisappointing
p1026
sI1035
Veach
p1027
sI1036
Veclectic
p1028
sI1037
Vended
p1029
sI1038
Vgreasy
p1030
sI1039
Vgumbo
p1031
sI1040
Vh
sI1041
Vhash
p1032
sI1042
Vjohns
p1033
sI1043
Vkeys
p1034
sI1044
Vlemon
p1035
sI1045
Vliked
p1036
sI1046
Vlol
p1037
sI1047
Vmentioned
p1038
sI1048
Vmexican
p1039
sI1049
Vmine
p1040
sI1050
Vmonth
p1041
sI1051
Vmultiple
p1042
sI1052
Vnon
p1043
sI1053
Voverpriced
p1044
sI1054
Vpersonal
p1045
sI1055
Vpieces
p1046
sI1056
Vplaying
p1047
sI1057
Vpresentation
p1048
sI1058
Vrealize
p1049
sI1059
Vsomewhat
p1050
sI1060
Vstandard
p1051
sI1061
Vsupposed
p1052
sI1062
Vtoast
p1053
sI1063
Vtomatoes
p1054
sI1064
Vton
p1055
sI1065
Vtrash
p1056
sI1066
Vtypical
p1057
sI1067
Vview
p1058
sI1068
Vweekends
p1059
sI1069
Vwithin
p1060
sI1070
V100
p1061
sI1071
Vabove
p1062
sI1072
Vbeans
p1063
sI1073
Vbeets
p1064
sI1074
Vblack
p1065
sI1075
Vbowl
p1066
sI1076
Vcash
p1067
sI1077
Vcasual
p1068
sI1078
Vcleaned
p1069
sI1079
Vco
p1070
sI1080
Vconcept
p1071
sI1081
Vconsider
p1072
sI1082
Vconsistently
p1073
sI1083
Vcontinue
p1074
sI1084
Vcredit
p1075
sI1085
Vdine
p1076
sI1086
Veverytime
p1077
sI1087
Vexperienced
p1078
sI1088
Vfancy
p1079
sI1089
Vgarlic
p1080
sI1090
Vgeneral
p1081
sI1091
Vginger
p1082
sI1092
Vhonest
p1083
sI1093
Vincluded
p1084
sI1094
Vitem
p1085
sI1095
Vkey
p1086
sI1096
Vladies
p1087
sI1097
Vle
p1088
sI1098
Vlikely
p1089
sI1099
Vloves
p1090
sI1100
Vmatter
p1091
sI1101
Vmignon
p1092
sI1102
Vmile
p1093
sI1103
Vmorning
p1094
sI1104
Vnearby
p1095
sI1105
Vnormally
p1096
sI1106
Vones
p1097
sI1107
Vonion
p1098
sI1108
Vopportunity
p1099
sI1109
Votherwise
p1100
sI1110
Vperhaps
p1101
sI1111
Vpie
p1102
sI1112
Vpineville
p1103
sI1113
Vpost
p1104
sI1114
Vprofessionalism
p1105
sI1115
Vregister
p1106
sI1116
Vschool
p1107
sI1117
Vseasoned
p1108
sI1118
Vsecurity
p1109
sI1119
Vsense
p1110
sI1120
Vspectacular
p1111
sI1121
Vstrawberry
p1112
sI1122
Vtalked
p1113
sI1123
Vtuna
p1114
sI1124
Vvalet
p1115
sI1125
Vvegetarian
p1116
sI1126
Vwaffles
p1117
sI1127
Vwasnt
p1118
sI1128
Vwatched
p1119
sI1129
Vwhether
p1120
sI1130
Vwide
p1121
sI1131
Vwindow
p1122
sI1132
Vwoman
p1123
sI1133
Vworkers
p1124
sI1134
V11
p1125
sI1135
V2016
p1126
sI1136
Vadd
p1127
sI1137
Vadults
p1128
sI1138
Vapparently
p1129
sI1139
Vappreciated
p1130
sI1140
Vapps
p1131
sI1141
Vareas
p1132
sI1142
Vaware
p1133
sI1143
Vbecame
p1134
sI1144
Vbought
p1135
sI1145
Vcaesar
p1136
sI1146
Vcase
p1137
sI1147
Vcelebrate
p1138
sI1148
Vcharge
p1139
sI1149
Vchipotle
p1140
sI1150
Vcleaning
p1141
sI1151
Vclientele
p1142
sI1152
Vcoconut
p1143
sI1153
Vcombo
p1144
sI1154
Vcomplained
p1145
sI1155
Vcomplimentary
p1146
sI1156
Vconstantly
p1147
sI1157
Vcovered
p1148
sI1158
Vcrowded
p1149
sI1159
Vdidnt
p1150
sI1160
Vdisgusting
p1151
sI1161
Vdraft
p1152
sI1162
Vdragon
p1153
sI1163
Ved
p1154
sI1164
Vexactly
p1155
sI1165
Vforgot
p1156
sI1166
Vfruit
p1157
sI1167
Vgenerally
p1158
sI1168
Vhalibut
p1159
sI1169
Vhidden
p1160
sI1170
Vhomemade
p1161
sI1171
Vjapanese
p1162
sI1172
Vjuly
p1163
sI1173
Vkay
p1164
sI1174
Vla
p1165
sI1175
Vmain
p1166
sI1176
Vmanger
p1167
sI1177
Vmarriott
p1168
sI1178
Vmeeting
p1169
sI1179
Vmess
p1170
sI1180
Vminute
p1171
sI1181
Vnorthlake
p1172
sI1182
Vopinion
p1173
sI1183
Voriginal
p1174
sI1184
Vpapa
p1175
sI1185
Vpolicy
p1176
sI1186
Vpositive
p1177
sI1187
Vproblems
p1178
sI1188
Vrecommendation
p1179
sI1189
Vrefund
p1180
sI1190
Vrequest
p1181
sI1191
Vrock
p1182
sI1192
Vseparate
p1183
sI1193
Vshame
p1184
sI1194
Vshare
p1185
sI1195
Vslice
p1186
sI1196
Vsoda
p1187
sI1197
Vsteakhouse
p1188
sI1198
Vsuggest
p1189
sI1199
Vsum
p1190
sI1200
Vsummer
p1191
sI1201
Vsystem
p1192
sI1202
Vtheater
p1193
sI1203
Vthin
p1194
sI1204
Vtopped
p1195
sI1205
Vtraining
p1196
sI1206
Vveggie
p1197
sI1207
Vviews
p1198
sI1208
Vwaitperson
p1199
sI1209
Vwarning
p1200
sI1210
Vweird
p1201
sI1211
Vwing
p1202
sI1212
Vword
p1203
sI1213
Vabsolute
p1204
sI1214
Vaccess
p1205
sI1215
Vanymore
p1206
sI1216
Vavoid
p1207
sI1217
Vbartenders
p1208
sI1218
Vbathrooms
p1209
sI1219
Vbiscuits
p1210
sI1220
Vbone
p1211
sI1221
Vboring
p1212
sI1222
Vbreak
p1213
sI1223
Vbroken
p1214
sI1224
Vburnt
p1215
sI1225
Vcheesecake
p1216
sI1226
Vchopped
p1217
sI1227
Vcomfortable
p1218
sI1228
Vcomplaints
p1219
sI1229
Vcorporate
p1220
sI1230
Vcrazy
p1221
sI1231
Vcups
p1222
sI1232
Vdowntown
p1223
sI1233
Vdropped
p1224
sI1234
Veffort
p1225
sI1235
Venjoyable
p1226
sI1236
Vfeeling
p1227
sI1237
Vfeels
p1228
sI1238
Vfranchise
p1229
sI1239
Vgone
p1230
sI1240
Vgotten
p1231
sI1241
Vgreen
p1232
sI1242
Vguest
p1233
sI1243
Vhanded
p1234
sI1244
Vheart
p1235
sI1245
Vherself
p1236
sI1246
Vhoney
p1237
sI1247
Vinconsistent
p1238
sI1248
Vking
p1239
sI1249
Vlaid
p1240
sI1250
Vmiddle
p1241
sI1251
Vmix
p1242
sI1252
Vnorth
p1243
sI1253
Vparmesan
p1244
sI1254
Vpatrons
p1245
sI1255
Vplanned
p1246
sI1256
Vplaza
p1247
sI1257
Vpopular
p1248
sI1258
Vpossible
p1249
sI1259
Vpossibly
p1250
sI1260
Vpot
p1251
sI1261
Vprovide
p1252
sI1262
Vputs
p1253
sI1263
Vputting
p1254
sI1264
Vrealized
p1255
sI1265
Vrecent
p1256
sI1266
Vrecommended
p1257
sI1267
Vreservations
p1258
sI1268
Vrobert
p1259
sI1269
Vsalted
p1260
sI1270
Vseasoning
p1261
sI1271
Vseeing
p1262
sI1272
Vsent
p1263
sI1273
Vshow
p1264
sI1274
Vsplit
p1265
sI1275
Vstandards
p1266
sI1276
Vsuppose
p1267
sI1277
Vtasting
p1268
sI1278
Vtho
p1269
sI1279
Vthursday
p1270
sI1280
Vtrue
p1271
sI1281
Vtvs
p1272
sI1282
Vu
sI1283
Vunacceptable
p1273
sI1284
Vvibe
p1274
sI1285
Vwhatever
p1275
sI1286
V90
p1276
sI1287
Vaccommodating
p1277
sI1288
Vacknowledged
p1278
sI1289
Vallergy
p1279
sI1290
Vamerican
p1280
sI1291
Vattend
p1281
sI1292
Vbeverages
p1282
sI1293
Vbooth
p1283
sI1294
Vbreeze
p1284
sI1295
Vbus
p1285
sI1296
Vcars
p1286
sI1297
Vcheaper
p1287
sI1298
Vcheddars
p1288
sI1299
Vcompany
p1289
sI1300
Vcomplaining
p1290
sI1301
Vcreamed
p1291
sI1302
Vcute
p1292
sI1303
Vdeliver
p1293
sI1304
Vdie
p1294
sI1305
Vdrinking
p1295
sI1306
Vdrivers
p1296
sI1307
Veveryon
p1297
sI1308
Vfavorites
p1298
sI1309
Vfilled
p1299
sI1310
Vfrozen
p1300
sI1311
Vgenerous
p1301
sI1312
Vgentleman
p1302
sI1313
Vglasses
p1303
sI1314
Vhelped
p1304
sI1315
Videa
p1305
sI1316
Vinitially
p1306
sI1317
Vitself
p1307
sI1318
Vive
p1308
sI1319
Vkinda
p1309
sI1320
Vlack
p1310
sI1321
Vmove
p1311
sI1322
Vmoving
p1312
sI1323
Vmushrooms
p1313
sI1324
Vmussels
p1314
sI1325
Vmustard
p1315
sI1326
Vnachos
p1316
sI1327
Vnapkins
p1317
sI1328
Vneedless
p1318
sI1329
Voffice
p1319
sI1330
Voverwhelmed
p1320
sI1331
Vpancakes
p1321
sI1332
Vpar
p1322
sI1333
Vpass
p1323
sI1334
Vpicked
p1324
sI1335
Vpicky
p1325
sI1336
Vprovided
p1326
sI1337
Vpuppy
p1327
sI1338
Vremoved
p1328
sI1339
Vresponse
p1329
sI1340
Vruined
p1330
sI1341
Vsend
p1331
sI1342
Vskills
p1332
sI1343
Vsoft
p1333
sI1344
Vsolid
p1334
sI1345
Vsoul
p1335
sI1346
Vsouthern
p1336
sI1347
Vspice
p1337
sI1348
Vstated
p1338
sI1349
Vstuck
p1339
sI1350
Vsulliva
p1340
sI1351
Vswitched
p1341
sI1352
Vtakes
p1342
sI1353
Vtiny
p1343
sI1354
Vtwenty
p1344
sI1355
Vunless
p1345
sI1356
Vwatching
p1346
sI1357
Vwebsite
p1347
sI1358
Vwild
p1348
sI1359
Vwl
p1349
sI1360
Vworker
p1350
sI1361
Vwraps
p1351
sI1362
V10pm
p1352
sI1363
V18
p1353
sI1364
V35
p1354
sI1365
Vaffordable
p1355
sI1366
Vafterwards
p1356
sI1367
Valcohol
p1357
sI1368
Vallergic
p1358
sI1369
Varrive
p1359
sI1370
Vasks
p1360
sI1371
Vawhile
p1361
sI1372
Vbanana
p1362
sI1373
Vbarrel
p1363
sI1374
Vbasically
p1364
sI1375
Vbasil
p1365
sI1376
Vbatch
p1366
sI1377
Vbenedict
p1367
sI1378
Vbesides
p1368
sI1379
Vbowls
p1369
sI1380
Vbroccoli
p1370
sI1381
Vbuy
p1371
sI1382
Vcafe
p1372
sI1383
Vcared
p1373
sI1384
Vcarolina
p1374
sI1385
Vcashier
p1375
sI1386
Vcertainly
p1376
sI1387
Vchan
p1377
sI1388
Vcommon
p1378
sI1389
Vcompared
p1379
sI1390
Vcooks
p1380
sI1391
Vcracker
p1381
sI1392
Vcrap
p1382
sI1393
Vdark
p1383
sI1394
Vdealing
p1384
sI1395
Vdepth
p1385
sI1396
Vdesserts
p1386
sI1397
Vdownstairs
p1387
sI1398
Vdried
p1388
sI1399
Vemail
p1389
sI1400
Vfabulous
p1390
sI1401
Vfavor
p1391
sI1402
Vfell
p1392
sI1403
Vfigure
p1393
sI1404
Vfilling
p1394
sI1405
Vfinish
p1395
sI1406
Vfire
p1396
sI1407
Vflorida
p1397
sI1408
Vfoot
p1398
sI1409
Vgem
p1399
sI1410
Vgirlfriend
p1400
sI1411
Vgirls
p1401
sI1412
Vgreens
p1402
sI1413
Vgross
p1403
sI1414
Vhilton
p1404
sI1415
Vhotels
p1405
sI1416
Vkevin
p1406
sI1417
Vlamb
p1407
sI1418
Vlisten
p1408
sI1419
Vlobby
p1409
sI1420
Vmahi
p1410
sI1421
Vmashed
p1411
sI1422
Vmodern
p1412
sI1423
Vmood
p1413
sI1424
Vnames
p1414
sI1425
Vnoodles
p1415
sI1426
Vnotice
p1416
sI1427
Vnut
p1417
sI1428
Voffers
p1418
sI1429
Vopened
p1419
sI1430
Voyster
p1420
sI1431
Vpaper
p1421
sI1432
Vparties
p1422
sI1433
Vpassed
p1423
sI1434
Vpatron
p1424
sI1435
Vpepperoni
p1425
sI1436
Vper
p1426
sI1437
Vpimento
p1427
sI1438
Vpull
p1428
sI1439
Vquestions
p1429
sI1440
Vraised
p1430
sI1441
Vre
p1431
sI1442
Vreceipt
p1432
sI1443
Vreceive
p1433
sI1444
Vrecommendations
p1434
sI1445
Vsaut
p1435
sI1446
Vselling
p1436
sI1447
Vserious
p1437
sI1448
Vseriously
p1438
sI1449
Vshortly
p1439
sI1450
Vsirloin
p1440
sI1451
Vslimy
p1441
sI1452
Vsort
p1442
sI1453
Vspeaking
p1443
sI1454
Vspoon
p1444
sI1455
Vstates
p1445
sI1456
Vsticky
p1446
sI1457
Vstomach
p1447
sI1458
Vtapas
p1448
sI1459
Vtenders
p1449
sI1460
Vterms
p1450
sI1461
Vthats
p1451
sI1462
Vthroughout
p1452
sI1463
Vtill
p1453
sI1464
Vtouch
p1454
sI1465
Vturn
p1455
sI1466
Vtwist
p1456
sI1467
Vunfortunate
p1457
sI1468
Vutensils
p1458
sI1469
Vvalentin
p1459
sI1470
Vvisits
p1460
sI1471
Vwatery
p1461
sI1472
Vwelcoming
p1462
sI1473
Vyork
p1463
sI1474
V30pm
p1464
sI1475
Vacted
p1465
sI1476
Vadvised
p1466
sI1477
Vagreed
p1467
sI1478
Val
p1468
sI1479
Valone
p1469
sI1480
Vambience
p1470
sI1481
Vample
p1471
sI1482
Vannoyed
p1472
sI1483
Vanswer
p1473
sI1484
Vappetite
p1474
sI1485
Vb
sI1486
Vbaby
p1475
sI1487
Vbacked
p1476
sI1488
Vbag
p1477
sI1489
Vbakery
p1478
sI1490
Vbars
p1479
sI1491
Vbatter
p1480
sI1492
Vbiscuit
p1481
sI1493
Vblue
p1482
sI1494
Vbob
p1483
sI1495
Vbonefish
p1484
sI1496
Vbottle
p1485
sI1497
Vboys
p1486
sI1498
Vbrisket
p1487
sI1499
Vbudget
p1488
sI1500
Vcaliber
p1489
sI1501
Vcaramel
p1490
sI1502
Vcater
p1491
sI1503
Vchristmas
p1492
sI1504
Vcinnamon
p1493
sI1505
Vclassics
p1494
sI1506
Vcleanliness
p1495
sI1507
Vclt
p1496
sI1508
Vcollege
p1497
sI1509
Vcomments
p1498
sI1510
Vcommunity
p1499
sI1511
Vcomputer
p1500
sI1512
Vcrafted
p1501
sI1513
Vcramped
p1502
sI1514
Vcreme
p1503
sI1515
Vcrepe
p1504
sI1516
Vcrisp
p1505
sI1517
Vdavid
p1506
sI1518
Vdel
p1507
sI1519
Vdeserts
p1508
sI1520
Vdouble
p1509
sI1521
Vdriver
p1510
sI1522
Vearned
p1511
sI1523
Venergy
p1512
sI1524
Vexplanation
p1513
sI1525
Vexposed
p1514
sI1526
Veyes
p1515
sI1527
Vf
sI1528
Vfellow
p1516
sI1529
Vfettuccine
p1517
sI1530
Vfill
p1518
sI1531
Vfixed
p1519
sI1532
Vflavorless
p1520
sI1533
Vfool
p1521
sI1534
Vforward
p1522
sI1535
Vfreshly
p1523
sI1536
Vfriscos
p1524
sI1537
Vfunny
p1525
sI1538
Vgoodness
p1526
sI1539
Vhardly
p1527
sI1540
Vhold
p1528
sI1541
Vhush
p1529
sI1542
Vhyatt
p1530
sI1543
Vindoors
p1531
sI1544
Vindustry
p1532
sI1545
Vinterior
p1533
sI1546
Vinternet
p1534
sI1547
Vintroduced
p1535
sI1548
Virritated
p1536
sI1549
Visland
p1537
sI1550
Vjim
p1538
sI1551
Vlately
p1539
sI1552
Vlaw
p1540
sI1553
Vlayout
p1541
sI1554
Vlegs
p1542
sI1555
Vlonger
p1543
sI1556
Vlunches
p1544
sI1557
Vmare
p1545
sI1558
Vmash
p1546
sI1559
Vmeet
p1547
sI1560
Vmeh
p1548
sI1561
Vmember
p1549
sI1562
Vmembers
p1550
sI1563
Vmet
p1551
sI1564
Vnegatives
p1552
sI1565
Vnoda
p1553
sI1566
Voldest
p1554
sI1567
Volive
p1555
sI1568
Vonions
p1556
sI1569
Voutback
p1557
sI1570
Vpeppers
p1558
sI1571
Vpiece
p1559
sI1572
Vpineapple
p1560
sI1573
Vpint
p1561
sI1574
Vplain
p1562
sI1575
Vplastic
p1563
sI1576
Vpositives
p1564
sI1577
Vpound
p1565
sI1578
Vpub
p1566
sI1579
Vpuppies
p1567
sI1580
Vrapid
p1568
sI1581
Vravioli
p1569
sI1582
Vreaction
p1570
sI1583
Vrefilled
p1571
sI1584
Vrefunded
p1572
sI1585
Vrelaxed
p1573
sI1586
Vrepeat
p1574
sI1587
Vrequested
p1575
sI1588
Vrespect
p1576
sI1589
Vretro
p1577
sI1590
Vround
p1578
sI1591
Vsauces
p1579
sI1592
Vservices
p1580
sI1593
Vsituation
p1581
sI1594
Vslightly
p1582
sI1595
Vson
p1583
sI1596
Vsouthpark
p1584
sI1597
Vspeaks
p1585
sI1598
Vspending
p1586
sI1599
Vspoiled
p1587
sI1600
Vstand
p1588
sI1601
Vtaco
p1589
sI1602
Vtougher
p1590
sI1603
Vtrack
p1591
sI1604
Vtransaction
p1592
sI1605
Vtrivia
p1593
sI1606
Vtypically
p1594
sI1607
Vuncomfortable
p1595
sI1608
Vuniversity
p1596
sI1609
Vusual
p1597
sI1610
V11pm
p1598
sI1611
V27
p1599
sI1612
V3rd
p1600
sI1613
V6pm
p1601
sI1614
Valot
p1602
sI1615
Valright
p1603
sI1616
Vamong
p1604
sI1617
Vangry
p1605
sI1618
Vanswered
p1606
sI1619
Vanxious
p1607
sI1620
Vapp
p1608
sI1621
Vappear
p1609
sI1622
Vappreciate
p1610
sI1623
Vart
p1611
sI1624
Vasian
p1612
sI1625
Vawards
p1613
sI1626
Vbeat
p1614
sI1627
Vbehavior
p1615
sI1628
Vberry
p1616
sI1629
Vblow
p1617
sI1630
Vboard
p1618
sI1631
Vbooked
p1619
sI1632
Vboy
p1620
sI1633
Vcakes
p1621
sI1634
Vcar
p1622
sI1635
Vcares
p1623
sI1636
Vcharacter
p1624
sI1637
Vchill
p1625
sI1638
Vchinese
p1626
sI1639
Vclassy
p1627
sI1640
Vcompare
p1628
sI1641
Vcourtesy
p1629
sI1642
Vcrappy
p1630
sI1643
Vcreative
p1631
sI1644
Vcuisine
p1632
sI1645
Vdancing
p1633
sI1646
Vdeck
p1634
sI1647
Vdepartment
p1635
sI1648
Vdiner
p1636
sI1649
Vdiners
p1637
sI1650
Vdisrespectful
p1638
sI1651
Vdrop
p1639
sI1652
Vduck
p1640
sI1653
Vearlier
p1641
sI1654
Veats
p1642
sI1655
Vedible
p1643
sI1656
Vengaging
p1644
sI1657
Vensure
p1645
sI1658
Vessentially
p1646
sI1659
Vevenings
p1647
sI1660
Vexcuses
p1648
sI1661
Vexplain
p1649
sI1662
Vfairly
p1650
sI1663
Vfamiliar
p1651
sI1664
Vfather
p1652
sI1665
Vfees
p1653
sI1666
Vfyi
p1654
sI1667
Vgift
p1655
sI1668
Vgoogle
p1656
sI1669
Vgourmet
p1657
sI1670
Vguacamole
p1658
sI1671
Vhandful
p1659
sI1672
Vhappens
p1660
sI1673
Vharris
p1661
sI1674
Vhell
p1662
sI1675
Vhello
p1663
sI1676
Vhickory
p1664
sI1677
Vhorrendous
p1665
sI1678
Vihop
p1666
sI1679
Vimpressive
p1667
sI1680
Vinconvenience
p1668
sI1681
Virish
p1669
sI1682
Vkid
p1670
sI1683
Vkindly
p1671
sI1684
Vknowledge
p1672
sI1685
Vkyle
p1673
sI1686
Vlacking
p1674
sI1687
Vlarger
p1675
sI1688
Vlasagna
p1676
sI1689
Vlets
p1677
sI1690
Vletting
p1678
sI1691
Vlounge
p1679
sI1692
Vm
sI1693
Vmelt
p1680
sI1694
Vmicrowave
p1681
sI1695
Vmissing
p1682
sI1696
Vmom
p1683
sI1697
Vmr
p1684
sI1698
Vneighborhood
p1685
sI1699
Vomg
p1686
sI1700
Voption
p1687
sI1701
Vorganized
p1688
sI1702
Vpain
p1689
sI1703
Vparticularly
p1690
sI1704
Vpleasantly
p1691
sI1705
Vpool
p1692
sI1706
Vpoorly
p1693
sI1707
Vprior
p1694
sI1708
Vprocessed
p1695
sI1709
Vproduct
p1696
sI1710
Vproper
p1697
sI1711
Vrange
p1698
sI1712
Vrather
p1699
sI1713
Vrave
p1700
sI1714
Vrefuse
p1701
sI1715
Vrelax
p1702
sI1716
Vreplace
p1703
sI1717
Vroad
p1704
sI1718
Vroutinely
p1705
sI1719
Vrudely
p1706
sI1720
Vrushed
p1707
sI1721
Vsalt
p1708
sI1722
Vsavory
p1709
sI1723
Vscene
p1710
sI1724
Vsettled
p1711
sI1725
Vshakes
p1712
sI1726
Vshops
p1713
sI1727
Vshots
p1714
sI1728
Vsleep
p1715
sI1729
Vsloppy
p1716
sI1730
Vsmelled
p1717
sI1731
Vsmells
p1718
sI1732
Vsmile
p1719
sI1733
Vsoccer
p1720
sI1734
Vsodas
p1721
sI1735
Vsoups
p1722
sI1736
Vspecifically
p1723
sI1737
Vspots
p1724
sI1738
Vstepped
p1725
sI1739
Vstood
p1726
sI1740
Vsuccess
p1727
sI1741
Vtaking
p1728
sI1742
Vtax
p1729
sI1743
Vterribly
p1730
sI1744
Vthrow
p1731
sI1745
Vtipping
p1732
sI1746
Vtoppings
p1733
sI1747
Vunlike
p1734
sI1748
Vusing
p1735
sI1749
Vvegetable
p1736
sI1750
Vverde
p1737
sI1751
Vweather
p1738
sI1752
Vwedges
p1739
sI1753
Vwif
p1740
sI1754
Vyeah
p1741
sI1755
Vyelled
p1742
sI1756
V2015
p1743
sI1757
V7pm
p1744
sI1758
V80
p1745
sI1759
V99
p1746
sI1760
Vaccessible
p1747
sI1761
Vaccommodate
p1748
sI1762
Vaccording
p1749
sI1763
Vaccordingly
p1750
sI1764
Vactivities
p1751
sI1765
Vactual
p1752
sI1766
Vaddress
p1753
sI1767
Vadmit
p1754
sI1768
Vadvice
p1755
sI1769
Vair
p1756
sI1770
Valcoholic
p1757
sI1771
Vamc
p1758
sI1772
Vamd
p1759
sI1773
Vannoying
p1760
sI1774
Vannual
p1761
sI1775
Vanybody
p1762
sI1776
Vappitizers
p1763
sI1777
Vapples
p1764
sI1778
Vaquarium
p1765
sI1779
Varena
p1766
sI1780
Varia
p1767
sI1781
Vassisted
p1768
sI1782
Vassortment
p1769
sI1783
Vattached
p1770
sI1784
Vazteca
p1771
sI1785
Vbarmaid
p1772
sI1786
Vbay
p1773
sI1787
Vbiggest
p1774
sI1788
Vbloody
p1775
sI1789
Vblt
p1776
sI1790
Vblvd
p1777
sI1791
Vbowled
p1778
sI1792
Vbreadstick
p1779
sI1793
Vbringing
p1780
sI1794
Vbroth
p1781
sI1795
Vbrownies
p1782
sI1796
Vbuffalo
p1783
sI1797
Vbuilt
p1784
sI1798
Vbunch
p1785
sI1799
Vburn
p1786
sI1800
Vburned
p1787
sI1801
Vburrito
p1788
sI1802
Vcandles
p1789
sI1803
Vcatch
p1790
sI1804
Vchatting
p1791
sI1805
Vcheeseburger
p1792
sI1806
Vchildren
p1793
sI1807
Vchima
p1794
sI1808
Vclams
p1795
sI1809
Vclear
p1796
sI1810
Vcloses
p1797
sI1811
Vclosest
p1798
sI1812
Vcloudy
p1799
sI1813
Vcocktail
p1800
sI1814
Vcoleslaw
p1801
sI1815
Vcollection
p1802
sI1816
Vcolumbia
p1803
sI1817
Vcooking
p1804
sI1818
Vcorner
p1805
sI1819
Vcover
p1806
sI1820
Vcracked
p1807
sI1821
Vcrew
p1808
sI1822
Vd
sI1823
Vdairy
p1809
sI1824
Vdandelion
p1810
sI1825
Vdang
p1811
sI1826
Vdaughters
p1812
sI1827
Vdetail
p1813
sI1828
Vdetails
p1814
sI1829
Vdimsum
p1815
sI1830
Vdistance
p1816
sI1831
Vdistributor
p1817
sI1832
Vdive
p1818
sI1833
Vdomin
p1819
sI1834
Vdonuts
p1820
sI1835
Vdoubt
p1821
sI1836
Vdownside
p1822
sI1837
Vdressed
p1823
sI1838
Vdriving
p1824
sI1839
Vdrove
p1825
sI1840
Vdumplings
p1826
sI1841
Vduty
p1827
sI1842
Vends
p1828
sI1843
Ventering
p1829
sI1844
Ventrance
p1830
sI1845
Vexcept
p1831
sI1846
Vexception
p1832
sI1847
Vexcuse
p1833
sI1848
Vexecution
p1834
sI1849
Vexecutive
p1835
sI1850
Vexplore
p1836
sI1851
Vfaces
p1837
sI1852
Vfat
p1838
sI1853
Vfemale
p1839
sI1854
Vfiery
p1840
sI1855
Vfillet
p1841
sI1856
Vfingers
p1842
sI1857
Vfired
p1843
sI1858
Vfloors
p1844
sI1859
Vflyer
p1845
sI1860
Vfootball
p1846
sI1861
Vfork
p1847
sI1862
Vgabby
p1848
sI1863
Vgastrolounge
p1849
sI1864
Vgerman
p1850
sI1865
Vgiant
p1851
sI1866
Vgnocchi
p1852
sI1867
Vgrabbed
p1853
sI1868
Vgreatest
p1854
sI1869
Vgrille
p1855
sI1870
Vgrit
p1856
sI1871
Vgrossed
p1857
sI1872
Vgrouper
p1858
sI1873
Vguarantee
p1859
sI1874
Vgym
p1860
sI1875
Vhariyali
p1861
sI1876
Vhawaiian
p1862
sI1877
Vheavy
p1863
sI1878
Vhospitality
p1864
sI1879
Vhouses
p1865
sI1880
Vhung
p1866
sI1881
Vhuntersville
p1867
sI1882
Vincidents
p1868
sI1883
Vincomplete
p1869
sI1884
Vindoor
p1870
sI1885
Vinterested
p1871
sI1886
Vjack
p1872
sI1887
Vjam
p1873
sI1888
Vjoe
p1874
sI1889
Vjohn
p1875
sI1890
Vjuices
p1876
sI1891
Vlackluster
p1877
sI1892
Vlarry
p1878
sI1893
Vlaughed
p1879
sI1894
Vlean
p1880
sI1895
Vlebowsk
p1881
sI1896
Vleftovers
p1882
sI1897
Vlemongrass
p1883
sI1898
Vlisted
p1884
sI1899
Vlocals
p1885
sI1900
Vlocker
p1886
sI1901
Vlunchtime
p1887
sI1902
Vlure
p1888
sI1903
Vlyle
p1889
sI1904
Vmachine
p1890
sI1905
Vmal
p1891
sI1906
Vmale
p1892
sI1907
Vmarried
p1893
sI1908
Vmatch
p1894
sI1909
Vmed
p1895
sI1910
Vmelted
p1896
sI1911
Vmgr
p1897
sI1912
Vmidwood
p1898
sI1913
Vmilkshake
p1899
sI1914
Vmini
p1900
sI1915
Vmixed
p1901
sI1916
Vmobile
p1902
sI1917
Vnamed
p1903
sI1918
Vnatural
p1904
sI1919
Vneat
p1905
sI1920
Vnicer
p1906
sI1921
Vorganic
p1907
sI1922
Voutlet
p1908
sI1923
Vpaige
p1909
sI1924
Vpairing
p1910
sI1925
Vpark
p1911
sI1926
Vpastries
p1912
sI1927
Vpathetic
p1913
sI1928
Vpayed
p1914
sI1929
Vpayment
p1915
sI1930
Vpeak
p1916
sI1931
Vpersonable
p1917
sI1932
Vpf
p1918
sI1933
Vpine
p1919
sI1934
Vpints
p1920
sI1935
Vpistachio
p1921
sI1936
Vpoisoning
p1922
sI1937
Vprefer
p1923
sI1938
Vpretzel
p1924
sI1939
Vprevious
p1925
sI1940
Vpricy
p1926
sI1941
Vpride
p1927
sI1942
Vproceeded
p1928
sI1943
Vprocess
p1929
sI1944
Vprofit
p1930
sI1945
Vprovides
p1931
sI1946
Vpudding
p1932
sI1947
Vpush
p1933
sI1948
Vrack
p1934
sI1949
Vreasonably
p1935
sI1950
Vreceiving
p1936
sI1951
Vrefused
p1937
sI1952
Vregina
p1938
sI1953
Vreputation
p1939
sI1954
Vricci
p1940
sI1955
Vrip
p1941
sI1956
Vripped
p1942
sI1957
Vrobbie
p1943
sI1958
Vrocks
p1944
sI1959
Vroof
p1945
sI1960
Vruin
p1946
sI1961
Vsal
p1947
sI1962
Vsanitary
p1948
sI1963
Vsanitation
p1949
sI1964
Vseason
p1950
sI1965
Vselections
p1951
sI1966
Vsetting
p1952
sI1967
Vsettle
p1953
sI1968
Vshake
p1954
sI1969
Vsimilar
p1955
sI1970
Vsir
p1956
sI1971
Vskimpy
p1957
sI1972
Vsliced
p1958
sI1973
Vsmashed
p1959
sI1974
Vsmiles
p1960
sI1975
Vsmokehouse
p1961
sI1976
Vsnack
p1962
sI1977
Vsouffl
p1963
sI1978
Vspaghetti
p1964
sI1979
Vspecific
p1965
sI1980
Vspotless
p1966
sI1981
Vstate
p1967
sI1982
Vstating
p1968
sI1983
Vstaying
p1969
sI1984
Vstep
p1970
sI1985
Vstick
p1971
sI1986
Vstupid
p1972
sI1987
Vsubpar
p1973
sI1988
Vsubstitute
p1974
sI1989
Vsyrup
p1975
sI1990
Vtag
p1976
sI1991
Vtend
p1977
sI1992
Vtexture
p1978
sI1993
Vthemselves
p1979
sI1994
Vticket
p1980
sI1995
Vtips
p1981
sI1996
Vtots
p1982
sI1997
Vtowels
p1983
sI1998
Vtreatment
p1984
sI1999
Vtryon
p1985
sI2000
Vtuesda
p1986
sI2001
Vupmost
p1987
sI2002
Vupstairs
p1988
sI2003
Vva
p1989
sI2004
Vvintage
p1990
sI2005
Vvoice
p1991
sI2006
Vwaitor
p1992
sI2007
Vwall
p1993
sI2008
Vwalls
p1994
sI2009
Vwanna
p1995
sI2010
Vwanting
p1996
sI2011
Vwasted
p1997
sI2012
Vweck
p1998
sI2013
Vwhichwich
p1999
sI2014
Vwrapped
p2000
sI2015
Vwriting
p2001
sI2016
Vwth
p2002
sI2017
Vzaxb
p2003
sI2018
Vzucchini
p2004
sI2019
V120
p2005
sI2020
V13
p2006
sI2021
V14
p2007
sI2022
V150
p2008
sI2023
V17
p2009
sI2024
V19
p2010
sI2025
V28
p2011
sI2026
V34
p2012
sI2027
V4th
p2013
sI2028
V55
p2014
sI2029
V96
p2015
sI2030
V9pm
p2016
sI2031
Vabaddon
p2017
sI2032
Vabsolutley
p2018
sI2033
Vact
p2019
sI2034
Vadding
p2020
sI2035
Vafternoon
p2021
sI2036
Vagree
p2022
sI2037
Vairport
p2023
sI2038
Vaka
p2024
sI2039
Vallowed
p2025
sI2040
Valwas
p2026
sI2041
Vamazed
p2027
sI2042
Vamongst
p2028
sI2043
Vanytime
p2029
sI2044
Vapproached
p2030
sI2045
Varrival
p2031
sI2046
Vaside
p2032
sI2047
Vatleast
p2033
sI2048
Vauntie
p2034
sI2049
Vavail
p2035
sI2050
Vawkward
p2036
sI2051
Vball
p2037
sI2052
Vbank
p2038
sI2053
Vbehold
p2039
sI2054
Vbelly
p2040
sI2055
Vbeware
p2041
sI2056
Vbistro
p2042
sI2057
Vblank
p2043
sI2058
Vblend
p2044
sI2059
Vblood
p2045
sI2060
Vbo
p2046
sI2061
Vbooths
p2047
sI2062
Vbothered
p2048
sI2063
Vbravo
p2049
sI2064
Vbreast
p2050
sI2065
Vbrew
p2051
sI2066
Vbreweries
p2052
sI2067
Vbrick
p2053
sI2068
Vbrie
p2054
sI2069
Vbrownie
p2055
sI2070
Vbtw
p2056
sI2071
Vbuds
p2057
sI2072
Vbuild
p2058
sI2073
Vbull
p2059
sI2074
Vbuying
p2060
sI2075
Vbuzz
p2061
sI2076
Vcanceled
p2062
sI2077
Vcandle
p2063
sI2078
Vcandy
p2064
sI2079
Vcarefully
p2065
sI2080
Vcarrot
p2066
sI2081
Vcatering
p2067
sI2082
Vcelebrated
p2068
sI2083
Vcertificate
p2069
sI2084
Vchair
p2070
sI2085
Vchairs
p2071
sI2086
Vcharlott
p2072
sI2087
Vchild
p2073
sI2088
Vchops
p2074
sI2089
Vchowder
p2075
sI2090
Vcities
p2076
sI2091
Vcleaner
p2077
sI2092
Vcloser
p2078
sI2093
Vclothes
p2079
sI2094
Vcomfort
p2080
sI2095
Vcomment
p2081
sI2096
Vconcerns
p2082
sI2097
Vcondescending
p2083
sI2098
Vconference
p2084
sI2099
Vconfusion
p2085
sI2100
Vcons
p2086
sI2101
Vconsisted
p2087
sI2102
Vconsumption
p2088
sI2103
Vcontainer
p2089
sI2104
Vcontemplating
p2090
sI2105
Vcorrected
p2091
sI2106
Vcostumer
p2092
sI2107
Vcrave
p2093
sI2108
Vcraving
p2094
sI2109
Vcrumbs
p2095
sI2110
Vcrusty
p2096
sI2111
Vcurrently
p2097
sI2112
Vde
p2098
sI2113
Vdead
p2099
sI2114
Vdefensive
p2100
sI2115
Vdelayed
p2101
sI2116
Vdepended
p2102
sI2117
Vdepending
p2103
sI2118
Vdeserves
p2104
sI2119
Vdiscovered
p2105
sI2120
Vdislike
p2106
sI2121
Vdiverse
p2107
sI2122
Vdivine
p2108
sI2123
Vdownhill
p2109
sI2124
Vdream
p2110
sI2125
Vdrugs
p2111
sI2126
Velevator
p2112
sI2127
Ventered
p2113
sI2128
Ventirely
p2114
sI2129
Vepic
p2115
sI2130
Vequal
p2116
sI2131
Vevents
p2117
sI2132
Vfalling
p2118
sI2133
Vfare
p2119
sI2134
Vfashion
p2120
sI2135
Vfault
p2121
sI2136
Vfeast
p2122
sI2137
Vfeet
p2123
sI2138
Vfinding
p2124
sI2139
Vfit
p2125
sI2140
Vflash
p2126
sI2141
Vflat
p2127
sI2142
Vflounder
p2128
sI2143
Vfollowing
p2129
sI2144
Vfriendliest
p2130
sI2145
Vfrustrated
p2131
sI2146
Vfurther
p2132
sI2147
Vgarden
p2133
sI2148
Vgastonia
p2134
sI2149
Vgirlfriends
p2135
sI2150
Vgives
p2136
sI2151
Vgm
p2137
sI2152
Vgold
p2138
sI2153
Vgrab
p2139
sI2154
Vgrease
p2140
sI2155
Vgreater
p2141
sI2156
Vgroups
p2142
sI2157
Vgrubby
p2143
sI2158
Vgyoza
p2144
sI2159
Vhanding
p2145
sI2160
Vhealth
p2146
sI2161
Vhearts
p2147
sI2162
Vhearty
p2148
sI2163
Vheaven
p2149
sI2164
Vheavily
p2150
sI2165
Vhelping
p2151
sI2166
Vhill
p2152
sI2167
Vhire
p2153
sI2168
Vhistoric
p2154
sI2169
Vhockey
p2155
sI2170
Vhooked
p2156
sI2171
Vhurry
p2157
sI2172
Vhype
p2158
sI2173
Vid
p2159
sI2174
Vidiot
p2160
sI2175
Vignore
p2161
sI2176
Vimpress
p2162
sI2177
Vimprovement
p2163
sI2178
Vingress
p2164
sI2179
Vinsane
p2165
sI2180
Vjimmy
p2166
sI2181
Vjokes
p2167
sI2182
Vjosh
p2168
sI2183
Vjune
p2169
sI2184
Vjustin
p2170
sI2185
Vkilled
p2171
sI2186
Vkinds
p2172
sI2187
Vknock
p2173
sI2188
Vknown
p2174
sI2189
Vlake
p2175
sI2190
Vlanguage
p2176
sI2191
Vlazy
p2177
sI2192
Vliberty
p2178
sI2193
Vlie
p2179
sI2194
Vlines
p2180
sI2195
Vlink
p2181
sI2196
Vloaf
p2182
sI2197
Vloudly
p2183
sI2198
Vlouisiana
p2184
sI2199
Vlovely
p2185
sI2200
Vlump
p2186
sI2201
Vma
p2187
sI2202
Vmacaroni
p2188
sI2203
Vmanner
p2189
sI2204
Vmar
p2190
sI2205
Vmargaritas
p2191
sI2206
Vmarinara
p2192
sI2207
Vmeant
p2193
sI2208
Vmemories
p2194
sI2209
Vmen
p2195
sI2210
Vmenus
p2196
sI2211
Vmistakes
p2197
sI2212
Vmothe
p2198
sI2213
Vmousse
p2199
sI2214
Vmushroom
p2200
sI2215
Vmushy
p2201
sI2216
Vmusty
p2202
sI2217
Vneither
p2203
sI2218
Vnick
p2204
sI2219
Vnoisy
p2205
sI2220
Vnotes
p2206
sI2221
Vnotified
p2207
sI2222
Vobvious
p2208
sI2223
Voctober
p2209
sI2224
Vofferings
p2210
sI2225
Volder
p2211
sI2226
Volds
p2212
sI2227
Volives
p2213
sI2228
Vopening
p2214
sI2229
Vowners
p2215
sI2230
Voz
p2216
sI2231
Vpack
p2217
sI2232
Vpad
p2218
sI2233
Vpan
p2219
sI2234
Vpancake
p2220
sI2235
Vpat
p2221
sI2236
Vpeaceful
p2222
sI2237
Vpenny
p2223
sI2238
Vpitchers
p2224
sI2239
Vpocket
p2225
sI2240
Vpolice
p2226
sI2241
Vpolitely
p2227
sI2242
Vpopularity
p2228
sI2243
Vporch
p2229
sI2244
Vpretentious
p2230
sI2245
Vpricing
p2231
sI2246
Vprob
p2232
sI2247
Vpromptly
p2233
sI2248
Vproperty
p2234
sI2249
Vpros
p2235
sI2250
Vproximity
p2236
sI2251
Vpumpkin
p2237
sI2252
Vpurchase
p2238
sI2253
Vpure
p2239
sI2254
Vqueen
p2240
sI2255
Vracist
p2241
sI2256
Vrandom
p2242
sI2257
Vraved
p2243
sI2258
Vrecieved
p2244
sI2259
Vredo
p2245
sI2260
Vreflect
p2246
sI2261
Vrehearsal
p2247
sI2262
Vrelaxing
p2248
sI2263
Vremained
p2249
sI2264
Vremake
p2250
sI2265
Vremodeled
p2251
sI2266
Vrepeatedly
p2252
sI2267
Vrequired
p2253
sI2268
Vroast
p2254
sI2269
Vrounded
p2255
sI2270
Vrubbery
p2256
sI2271
Vsadly
p2257
sI2272
Vsafe
p2258
sI2273
Vsake
p2259
sI2274
Vsales
p2260
sI2275
Vsatisfactory
p2261
sI2276
Vsatisfying
p2262
sI2277
Vscrambled
p2263
sI2278
Vscreen
p2264
sI2279
Vseemingly
p2265
sI2280
Vsell
p2266
sI2281
Vsetup
p2267
sI2282
Vsharing
p2268
sI2283
Vshift
p2269
sI2284
Vshock
p2270
sI2285
Vshoes
p2271
sI2286
Vsignature
p2272
sI2287
Vsinging
p2273
sI2288
Vsite
p2274
sI2289
Vsix
p2275
sI2290
Vskin
p2276
sI2291
Vskip
p2277
sI2292
Vsmoking
p2278
sI2293
Vsnobby
p2279
sI2294
Vsomehow
p2280
sI2295
Vsounds
p2281
sI2296
Vspun
p2282
sI2297
Vstaffed
p2283
sI2298
Vstarbucks
p2284
sI2299
Vstarting
p2285
sI2300
Vstealing
p2286
sI2301
Vstocked
p2287
sI2302
Vstopping
p2288
sI2303
Vstory
p2289
sI2304
Vsuccessful
p2290
sI2305
Vsuck
p2291
sI2306
Vsupervisor
p2292
sI2307
Vsupporting
p2293
sI2308
Vsuv
p2294
sI2309
Vswear
p2295
sI2310
Vswimming
p2296
sI2311
Vteeter
p2297
sI2312
Vthemed
p2298
sI2313
Vtheyre
p2299
sI2314
Vthird
p2300
sI2315
Vthirty
p2301
sI2316
Vtimely
p2302
sI2317
Vtons
p2303
sI2318
Vtough
p2304
sI2319
Vtournament
p2305
sI2320
Vtowards
p2306
sI2321
Vtrio
p2307
sI2322
Vtrout
p2308
sI2323
Vtuesdays
p2309
sI2324
Vturns
p2310
sI2325
Vtv
p2311
sI2326
Vunconcerned
p2312
sI2327
Vunderstaffed
p2313
sI2328
Vunderstanding
p2314
sI2329
Vunfriendly
p2315
sI2330
Vupdate
p2316
sI2331
Vveggies
p2317
sI2332
Vvoided
p2318
sI2333
Vwants
p2319
sI2334
Vwear
p2320
sI2335
Vwelcome
p2321
sI2336
Vwendy
p2322
sI2337
Vwhoever
p2323
sI2338
Vwines
p2324
sI2339
Vwitnessed
p2325
sI2340
Vwomen
p2326
sI2341
Vwood
p2327
sI2342
Vworry
p2328
sI2343
Vwrote
p2329
sI2344
Vwtf
p2330
sI2345
V21
p2331
sI2346
V22
p2332
sI2347
V29th
p2333
sI2348
V37
p2334
sI2349
V44
p2335
sI2350
V4x4
p2336
sI2351
V5church
p2337
sI2352
V5th
p2338
sI2353
V75
p2339
sI2354
Vace
p2340
sI2355
Vache
p2341
sI2356
Vacknowledge
p2342
sI2357
Vaddition
p2343
sI2358
Vadvertise
p2344
sI2359
Vale
p2345
sI2360
Valex
p2346
sI2361
Valoof
p2347
sI2362
Vanchovies
p2348
sI2363
Vangel
p2349
sI2364
Vanyways
p2350
sI2365
Vappetizing
p2351
sI2366
Varcade
p2352
sI2367
Vasada
p2353
sI2368
Vashleigh
p2354
sI2369
Vattempted
p2355
sI2370
Vau
p2356
sI2371
Vbaguette
p2357
sI2372
Vbanquet
p2358
sI2373
Vbarriers
p2359
sI2374
Vbasketball
p2360
sI2375
Vbean
p2361
sI2376
Vbecome
p2362
sI2377
Vbegan
p2363
sI2378
Vbelgian
p2364
sI2379
Vbigger
p2365
sI2380
Vbits
p2366
sI2381
Vbitter
p2367
sI2382
Vblades
p2368
sI2383
Vblowing
p2369
sI2384
Vboardwalk
p2370
sI2385
Vbordelaise
p2371
sI2386
Vbounce
p2372
sI2387
Vboxes
p2373
sI2388
Vbraised
p2374
sI2389
Vbrand
p2375
sI2390
Vbrazilian
p2376
sI2391
Vbrother
p2377
sI2392
Vbrown
p2378
sI2393
Vbruschetta
p2379
sI2394
Vbuck
p2380
sI2395
Vbucket
p2381
sI2396
Vbucks
p2382
sI2397
Vbummed
p2383
sI2398
Vbun
p2384
sI2399
Vburner
p2385
sI2400
Vbutcher
p2386
sI2401
Vcaesars
p2387
sI2402
Vcans
p2388
sI2403
Vcantina
p2389
sI2404
Vcantonese
p2390
sI2405
Vcapital
p2391
sI2406
Vcaptain
p2392
sI2407
Vcarmelized
p2393
sI2408
Vcarrabb
p2394
sI2409
Vcarte
p2395
sI2410
Vcarts
p2396
sI2411
Vcarved
p2397
sI2412
Vcashiers
p2398
sI2413
Vcaught
p2399
sI2414
Vcelebrating
p2400
sI2415
Vcesar
p2401
sI2416
Vchallenge
p2402
sI2417
Vchances
p2403
sI2418
Vche
p2404
sI2419
Vchil
p2405
sI2420
Vclaimed
p2406
sI2421
Vclass
p2407
sI2422
Vcobbler
p2408
sI2423
Vcoke
p2409
sI2424
Vcollard
p2410
sI2425
Vcollards
p2411
sI2426
Vcombination
p2412
sI2427
Vcomplimented
p2413
sI2428
Vconcerned
p2414
sI2429
Vconcert
p2415
sI2430
Vconclusion
p2416
sI2431
Vconsidered
p2417
sI2432
Vcontender
p2418
sI2433
Vcoop
p2419
sI2434
Vcoordinator
p2420
sI2435
Vcoule
p2421
sI2436
Vcount
p2422
sI2437
Vcowfish
p2423
sI2438
Vcoworkers
p2424
sI2439
Vcreek
p2425
sI2440
Vcrembroulet
p2426
sI2441
Vcuts
p2427
sI2442
Vda
p2428
sI2443
Vdamage
p2429
sI2444
Vdammmmmm
p2430
sI2445
Vdecorations
p2431
sI2446
Vdeliciously
p2432
sI2447
Vdelivering
p2433
sI2448
Vdelivers
p2434
sI2449
Vdelmonico
p2435
sI2450
Vdemeanor
p2436
sI2451
Vdepends
p2437
sI2452
Vdifference
p2438
sI2453
Vdifferently
p2439
sI2454
Vdined
p2440
sI2455
Vdinning
p2441
sI2456
Vdisappoint
p2442
sI2457
Vdisappointment
p2443
sI2458
Vdiscussed
p2444
sI2459
Vdisk
p2445
sI2460
Vdismissed
p2446
sI2461
Vdives
p2447
sI2462
Vdoggie
p2448
sI2463
Vdominoes
p2449
sI2464
Vdominos
p2450
sI2465
Vdoughy
p2451
sI2466
Vdrain
p2452
sI2467
Vdrinker
p2453
sI2468
Vdropping
p2454
sI2469
Veager
p2455
sI2470
Veast
p2456
sI2471
Veggplant
p2457
sI2472
Velevators
p2458
sI2473
Vembarrassed
p2459
sI2474
Vemployer
p2460
sI2475
Vencountered
p2461
sI2476
Vesp
p2462
sI2477
Vethnic
p2463
sI2478
Vexchange
p2464
sI2479
Vexecuted
p2465
sI2480
Vexisted
p2466
sI2481
Vextras
p2467
sI2482
Vfailed
p2468
sI2483
Vfamilies
p2469
sI2484
Vfarms
p2470
sI2485
Vfastest
p2471
sI2486
Vfathe
p2472
sI2487
Vfeatures
p2473
sI2488
Vfee
p2474
sI2489
Vfifth
p2475
sI2490
Vfigured
p2476
sI2491
Vfits
p2477
sI2492
Vflatbread
p2478
sI2493
Vfolks
p2479
sI2494
Vfollow
p2480
sI2495
Vfoods
p2481
sI2496
Vframe
p2482
sI2497
Vfreezer
p2483
sI2498
Vfrequently
p2484
sI2499
Vfry
p2485
sI2500
Vfunction
p2486
sI2501
Vfurious
p2487
sI2502
Vgabrielle
p2488
sI2503
Vgateway
p2489
sI2504
Vgathering
p2490
sI2505
Vgelato
p2491
sI2506
Vgeorgia
p2492
sI2507
Vgoat
p2493
sI2508
Vgonna
p2494
sI2509
Vgrandma
p2495
sI2510
Vgreet
p2496
sI2511
Vgumbos
p2497
sI2512
Vhallways
p2498
sI2513
Vhardware
p2499
sI2514
Vhaven
p2500
sI2515
Vheated
p2501
sI2516
Vhey
p2502
sI2517
Vhibachi
p2503
sI2518
Vhiding
p2504
sI2519
Vhl
p2505
sI2520
Vhole
p2506
sI2521
Vhunt
p2507
sI2522
Viceberg
p2508
sI2523
Viced
p2509
sI2524
Vidk
p2510
sI2525
Vill
p2511
sI2526
Vimportant
p2512
sI2527
Vinclude
p2513
sI2528
Vincredibly
p2514
sI2529
Vinedible
p2515
sI2530
Ving
p2516
sI2531
Vinjured
p2517
sI2532
Vinsensitive
p2518
sI2533
Vinteriors
p2519
sI2534
Vjalapeno
p2520
sI2535
Vjanuary
p2521
sI2536
Vjasmine
p2522
sI2537
Vjerk
p2523
sI2538
Vjoke
p2524
sI2539
Vjuicy
p2525
sI2540
Vjumbo
p2526
sI2541
Vjumped
p2527
sI2542
Vkeeps
p2528
sI2543
Vkelsey
p2529
sI2544
Vketch
p2530
sI2545
Vkills
p2531
sI2546
Vknowing
p2532
sI2547
Vknows
p2533
sI2548
Vland
p2534
sI2549
Vlaughing
p2535
sI2550
Vlaundry
p2536
sI2551
Vlearned
p2537
sI2552
Vlied
p2538
sI2553
Vlights
p2539
sI2554
Vlistening
p2540
sI2555
Vlived
p2541
sI2556
Vliving
p2542
sI2557
Vll
p2543
sI2558
Vlover
p2544
sI2559
Vluck
p2545
sI2560
Vlucky
p2546
sI2561
Vlyl
p2547
sI2562
Vmajority
p2548
sI2563
Vmallard
p2549
sI2564
Vmam
p2550
sI2565
Vmarvin
p2551
sI2566
Vmatched
p2552
sI2567
Vmatt
p2553
sI2568
Vmatters
p2554
sI2569
Vmeasure
p2555
sI2570
Vmeatloaf
p2556
sI2571
Vmer
p2557
sI2572
Vmessy
p2558
sI2573
Vmichae
p2559
sI2574
Vmichaels
p2560
sI2575
Vmidnight
p2561
sI2576
Vmik
p2562
sI2577
Vmill
p2563
sI2578
Vminus
p2564
sI2579
Vmonster
p2565
sI2580
Vmostly
p2566
sI2581
Vmother
p2567
sI2582
Vnasser
p2568
sI2583
Vnearly
p2569
sI2584
Vnecessary
p2570
sI2585
Vnic
p2571
sI2586
Vnicks
p2572
sI2587
Vniece
p2573
sI2588
Vnigh
p2574
sI2589
Vnightmare
p2575
sI2590
Vnormal
p2576
sI2591
Vnuggets
p2577
sI2592
Vnumerous
p2578
sI2593
Vny
p2579
sI2594
Voccasion
p2580
sI2595
Vomelets
p2581
sI2596
Voperation
p2582
sI2597
Voverflowing
p2583
sI2598
Voverly
p2584
sI2599
Vowns
p2585
sI2600
Vpacker
p2586
sI2601
Vpaired
p2587
sI2602
Vpanthers
p2588
sI2603
Vparents
p2589
sI2604
Vpatrick
p2590
sI2605
Vpeach
p2591
sI2606
Vpen
p2592
sI2607
Vperiod
p2593
sI2608
Vphilly
p2594
sI2609
Vplacing
p2595
sI2610
Vplantains
p2596
sI2611
Vplatter
p2597
sI2612
Vplayful
p2598
sI2613
Vpleased
p2599
sI2614
Vpointing
p2600
sI2615
Vpower
p2601
sI2616
Vpresent
p2602
sI2617
Vpretzels
p2603
sI2618
Vpro
p2604
sI2619
Vproceed
p2605
sI2620
Vproceeds
p2606
sI2621
Vpromise
p2607
sI2622
Vprompt
p2608
sI2623
Vproof
p2609
sI2624
Vproviding
p2610
sI2625
Vpurely
p2611
sI2626
Vquestion
p2612
sI2627
Vrarely
p2613
sI2628
Vrated
p2614
sI2629
Vraves
p2615
sI2630
Vraving
p2616
sI2631
Vrazzo
p2617
sI2632
Vrefreshing
p2618
sI2633
Vrefrigerator
p2619
sI2634
Vregret
p2620
sI2635
Vregularly
p2621
sI2636
Vreluctantly
p2622
sI2637
Vremembers
p2623
sI2638
Vremind
p2624
sI2639
Vremotely
p2625
sI2640
Vremove
p2626
sI2641
Vrenovated
p2627
sI2642
Vrent
p2628
sI2643
Vrepeated
p2629
sI2644
Vreplied
p2630
sI2645
Vrequesting
p2631
sI2646
Vrestauran
p2632
sI2647
Vreward
p2633
sI2648
Vring
p2634
sI2649
Vroadhouse
p2635
sI2650
Vrolled
p2636
sI2651
Vrule
p2637
sI2652
Vrum
p2638
sI2653
Vrut
p2639
sI2654
Vruth
p2640
sI2655
Vryan
p2641
sI2656
Vsashimi
p2642
sI2657
Vsaved
p2643
sI2658
Vscampi
p2644
sI2659
Vscrew
p2645
sI2660
Vscrewed
p2646
sI2661
Vscrumptious
p2647
sI2662
Vseek
p2648
sI2663
Vsending
p2649
sI2664
Vshade
p2650
sI2665
Vshirt
p2651
sI2666
Vshows
p2652
sI2667
Vshut
p2653
sI2668
Vsignificantly
p2654
sI2669
Vsized
p2655
sI2670
Vskeptical
p2656
sI2671
Vslices
p2657
sI2672
Vslots
p2658
sI2673
Vsmell
p2659
sI2674
Vsmooth
p2660
sI2675
Vsnatched
p2661
sI2676
Vsofa
p2662
sI2677
Vsonic
p2663
sI2678
Vsooo
p2664
sI2679
Vsour
p2665
sI2680
Vspecialties
p2666
sI2681
Vspices
p2667
sI2682
Vsticks
p2668
sI2683
Vstruggle
p2669
sI2684
Vstumbled
p2670
sI2685
Vsubs
p2671
sI2686
Vsuffered
p2672
sI2687
Vsugar
p2673
sI2688
Vsuggestion
p2674
sI2689
Vsuperb
p2675
sI2690
Vsupply
p2676
sI2691
Vtap
p2677
sI2692
Vtaps
p2678
sI2693
Vtavern
p2679
sI2694
Vtempura
p2680
sI2695
Vtends
p2681
sI2696
Vtexas
p2682
sI2697
Vtheme
p2683
sI2698
Vthick
p2684
sI2699
Vthinks
p2685
sI2700
Vthoroughly
p2686
sI2701
Vthrilled
p2687
sI2702
Vthrowing
p2688
sI2703
Vthrows
p2689
sI2704
Vtiming
p2690
sI2705
Vtone
p2691
sI2706
Vtopping
p2692
sI2707
Vtrained
p2693
sI2708
Vtraveling
p2694
sI2709
Vtrust
p2695
sI2710
Vunable
p2696
sI2711
Vunbelievable
p2697
sI2712
Vunpleasant
p2698
sI2713
Vupdated
p2699
sI2714
Vvegan
p2700
sI2715
Vveteran
p2701
sI2716
Vvia
p2702
sI2717
Vvirginia
p2703
sI2718
Vvodka
p2704
sI2719
Vvolleyball
p2705
sI2720
Vvs
p2706
sI2721
Vwaitstaff
p2707
sI2722
Vwandered
p2708
sI2723
Vwarn
p2709
sI2724
Vwarned
p2710
sI2725
Vwatering
p2711
sI2726
Vwednesdays
p2712
sI2727
Vwhatsoever
p2713
sI2728
Vwheelchair
p2714
sI2729
Vwhipped
p2715
sI2730
Vwich
p2716
sI2731
Vwonder
p2717
sI2732
Vwords
p2718
sI2733
Vwoule
p2719
sI2734
Vy
sI2735
Vyourselves
p2720
sI2736
Vziosk
p2721
sI2737
V10stars
p2722
sI2738
V170
p2723
sI2739
V200
p2724
sI2740
V2014
p2725
sI2741
V20pm
p2726
sI2742
V23
p2727
sI2743
V230
p2728
sI2744
V2am
p2729
sI2745
V2hr
p2730
sI2746
V40ish
p2731
sI2747
V45pm
p2732
sI2748
V501c3
p2733
sI2749
V525
p2734
sI2750
V60
p2735
sI2751
V70
p2736
sI2752
V70th
p2737
sI2753
V8th
p2738
sI2754
Vabusing
p2739
sI2755
Vaccepted
p2740
sI2756
Vaccomadating
p2741
sI2757
Vaccross
p2742
sI2758
Vacts
p2743
sI2759
Vaddressing
p2744
sI2760
Vadequate
p2745
sI2761
Vadjusted
p2746
sI2762
Vadult
p2747
sI2763
Vadvance
p2748
sI2764
Vadvertising
p2749
sI2765
Vaffair
p2750
sI2766
Vaffect
p2751
sI2767
Vaggravated
p2752
sI2768
Vagony
p2753
sI2769
Vai
p2754
sI2770
Valarm
p2755
sI2771
Valas
p2756
sI2772
Valbeit
p2757
sI2773
Valice
p2758
sI2774
Valleys
p2759
sI2775
Vally
p2760
sI2776
Vambient
p2761
sI2777
Vamericans
p2762
sI2778
Vanbody
p2763
sI2779
Vannies
p2764
sI2780
Vannoys
p2765
sI2781
Vanomaly
p2766
sI2782
Vappeared
p2767
sI2783
Vapplebutter
p2768
sI2784
Vargumentative
p2769
sI2785
Varooj
p2770
sI2786
Varranging
p2771
sI2787
Vasheville
p2772
sI2788
Vasiago
p2773
sI2789
Vaspect
p2774
sI2790
Vassume
p2775
sI2791
Vastonishingly
p2776
sI2792
Vastounded
p2777
sI2793
Vatrocious
p2778
sI2794
Vattended
p2779
sI2795
Vattented
p2780
sI2796
Vattire
p2781
sI2797
Vattracted
p2782
sI2798
Vattractions
p2783
sI2799
Vauthorize
p2784
sI2800
Vavacado
p2785
sI2801
Vbackground
p2786
sI2802
Vbacks
p2787
sI2803
Vbadly
p2788
sI2804
Vbaguettes
p2789
sI2805
Vbald
p2790
sI2806
Vband
p2791
sI2807
Vbanging
p2792
sI2808
Vbanh
p2793
sI2809
Vbanquette
p2794
sI2810
Vbasement
p2795
sI2811
Vbass
p2796
sI2812
Vbathed
p2797
sI2813
Vbcs
p2798
sI2814
Vbeachfront
p2799
sI2815
Vbeachy
p2800
sI2816
Vbecomes
p2801
sI2817
Vbeds
p2802
sI2818
Vbehalf
p2803
sI2819
Vbeleive
p2804
sI2820
Vbelk
p2805
sI2821
Vbell
p2806
sI2822
Vbellow
p2807
sI2823
Vbeth
p2808
sI2824
Vbeurre
p2809
sI2825
Vbillboards
p2810
sI2826
Vbills
p2811
sI2827
Vbins
p2812
sI2828
Vbiscuts
p2813
sI2829
Vbites
p2814
sI2830
Vblanc
p2815
sI2831
Vbless
p2816
sI2832
Vblocked
p2817
sI2833
Vblossom
p2818
sI2834
Vblown
p2819
sI2835
Vboiled
p2820
sI2836
Vbojangles
p2821
sI2837
Vbon
p2822
sI2838
Vbook
p2823
sI2839
Vbored
p2824
sI2840
Vbottles
p2825
sI2841
Vbourbon
p2826
sI2842
Vbreaded
p2827
sI2843
Vbright
p2828
sI2844
Vbrings
p2829
sI2845
Vbrits
p2830
sI2846
Vbroadly
p2831
sI2847
Vbrocolli
p2832
sI2848
Vbroke
p2833
sI2849
Vbrowns
p2834
sI2850
Vbrule
p2835
sI2851
Vbryce
p2836
sI2852
Vbug
p2837
sI2853
Vbuiscuit
p2838
sI2854
Vbullet
p2839
sI2855
Vburlee
p2840
sI2856
Vburning
p2841
sI2857
Vbusters
p2842
sI2858
Vbuttermilk
p2843
sI2859
Vbutters
p2844
sI2860
Vcafeteria
p2845
sI2861
Vcamaron
p2846
sI2862
Vcamp
p2847
sI2863
Vcampfire
p2848
sI2864
Vcancelled
p2849
sI2865
Vcandied
p2850
sI2866
Vcap
p2851
sI2867
Vcaribbean
p2852
sI2868
Vcarousel
p2853
sI2869
Vcarpet
p2854
sI2870
Vcelebration
p2855
sI2871
Vcelebrity
p2856
sI2872
Vcentrally
p2857
sI2873
Vceremony
p2858
sI2874
Vchains
p2859
sI2875
Vchannel
p2860
sI2876
Vcharlottes
p2861
sI2877
Vcharred
p2862
sI2878
Vchased
p2863
sI2879
Vcheckers
p2864
sI2880
Vchecks
p2865
sI2881
Vcheddar
p2866
sI2882
Vcheeze
p2867
sI2883
Vcherry
p2868
sI2884
Vchic
p2869
sI2885
Vchick
p2870
sI2886
Vchipper
p2871
sI2887
Vchive
p2872
sI2888
Vchutney
p2873
sI2889
Vcilantro
p2874
sI2890
Vcinnabon
p2875
sI2891
Vclam
p2876
sI2892
Vclassic
p2877
sI2893
Vclientel
p2878
sI2894
Vclocked
p2879
sI2895
Vclothing
p2880
sI2896
Vcloves
p2881
sI2897
Vclubbed
p2882
sI2898
Vclump
p2883
sI2899
Vcmc
p2884
sI2900
Vcnn
p2885
sI2901
Vcoastal
p2886
sI2902
Vcoctails
p2887
sI2903
Vcoctel
p2888
sI2904
Vcode
p2889
sI2905
Vcombining
p2890
sI2906
Vcomfy
p2891
sI2907
Vcomic
p2892
sI2908
Vcommodities
p2893
sI2909
Vcomolete
p2894
sI2910
Vcompares
p2895
sI2911
Vcomped
p2896
sI2912
Vcompetition
p2897
sI2913
Vcompetitive
p2898
sI2914
Vcomplex
p2899
sI2915
Vcomprable
p2900
sI2916
Vconcoction
p2901
sI2917
Vconditioned
p2902
sI2918
Vcondone
p2903
sI2919
Vconducive
p2904
sI2920
Vconfirmation
p2905
sI2921
Vconfused
p2906
sI2922
Vcongealed
p2907
sI2923
Vconsensus
p2908
sI2924
Vconservation
p2909
sI2925
Vconsiderable
p2910
sI2926
Vconsistenly
p2911
sI2927
Vconsumer
p2912
sI2928
Vcontacting
p2913
sI2929
Vcontainers
p2914
sI2930
Vcontains
p2915
sI2931
Vcontinously
p2916
sI2932
Vcontinued
p2917
sI2933
Vcontracted
p2918
sI2934
Vconvention
p2919
sI2935
Vconversations
p2920
sI2936
Vcornbread
p2921
sI2937
Vcorparate
p2922
sI2938
Vcostly
p2923
sI2939
Vcottonballs
p2924
sI2940
Vcouldnt
p2925
sI2941
Vcrawfish
p2926
sI2942
Vcreations
p2927
sI2943
Vcrime
p2928
sI2944
Vcrisis
p2929
sI2945
Vcritical
p2930
sI2946
Vcroissants
p2931
sI2947
Vcross
p2932
sI2948
Vcrostini
p2933
sI2949
Vcroutons
p2934
sI2950
Vcrowed
p2935
sI2951
Vcrunch
p2936
sI2952
Vcrunchy
p2937
sI2953
Vcucina
p2938
sI2954
Vcurb
p2939
sI2955
Vcurrent
p2940
sI2956
Vdailey
p2941
sI2957
Vdamper
p2942
sI2958
Vdance
p2943
sI2959
Vdancefloor
p2944
sI2960
Vdave
p2945
sI2961
Vdealt
p2946
sI2962
Vdeath
p2947
sI2963
Vdecide
p2948
sI2964
Vdecorated
p2949
sI2965
Vdefenitley
p2950
sI2966
Vdegraded
p2951
sI2967
Vdelicacies
p2952
sI2968
Vdeliciousgasm
p2953
sI2969
Vdelish
p2954
sI2970
Vdemolished
p2955
sI2971
Vdense
p2956
sI2972
Vdescribed
p2957
sI2973
Vdesignation
p2958
sI2974
Vdesigned
p2959
sI2975
Vdesirable
p2960
sI2976
Vdic
p2961
sI2977
Vdied
p2962
sI2978
Vdietary
p2963
sI2979
Vdinasaur
p2964
sI2980
Vdirectly
p2965
sI2981
Vdirt
p2966
sI2982
Vdisappeared
p2967
sI2983
Vdisbelief
p2968
sI2984
Vdiscover
p2969
sI2985
Vdisgrace
p2970
sI2986
Vdisgraceful
p2971
sI2987
Vdisgusted
p2972
sI2988
Vdished
p2973
sI2989
Vdissapointing
p2974
sI2990
Vdissatisfied
p2975
sI2991
Vdistasteful
p2976
sI2992
Vdisturb
p2977
sI2993
Vdoctor
p2978
sI2994
Vdon
p2979
sI2995
Vdoors
p2980
sI2996
Vdot
p2981
sI2997
Vdr
p2982
sI2998
Vdrapery
p2983
sI2999
Vdress
p2984
sI3000
Vdressingi
p2985
sI3001
Vdressle
p2986
sI3002
Vdressler
p2987
sI3003
Vdrunk
p2988
sI3004
Vdrury
p2989
sI3005
Vdryer
p2990
sI3006
Vdumbstruck
p2991
sI3007
Vdurning
p2992
sI3008
Vdynamite
p2993
sI3009
Vease
p2994
sI3010
Veclair
p2995
sI3011
Vefficient
p2996
sI3012
Vencourages
p2997
sI3013
Vendanger
p2998
sI3014
Venjoyment
p2999
sI3015
Venlightened
p3000
sI3016
Vepicenter
p3001
sI3017
Vepisode
p3002
sI3018
Vescalator
p3003
sI3019
Vespresso
p3004
sI3020
Vevacuated
p3005
sI3021
Veve
p3006
sI3022
Veventually
p3007
sI3023
Veverybody
p3008
sI3024
Vexceeds
p3009
sI3025
Vexcelled
p3010
sI3026
Vexcess
p3011
sI3027
Vexcessive
p3012
sI3028
Vexpanded
p3013
sI3029
Vexpense
p3014
sI3030
Vexpertly
p3015
sI3031
Vexperts
p3016
sI3032
Vexpression
p3017
sI3033
Vextreme
p3018
sI3034
Vexxon
p3019
sI3035
Vfacial
p3020
sI3036
Vfalls
p3021
sI3037
Vfamous
p3022
sI3038
Vfeeding
p3023
sI3039
Vfemales
p3024
sI3040
Vfence
p3025
sI3041
Vfermentations
p3026
sI3042
Vfi
p3027
sI3043
Vfianc
p3028
sI3044
Vfil
p3029
sI3045
Vfills
p3030
sI3046
Vfilthy
p3031
sI3047
Vfinalize
p3032
sI3048
Vfingerling
p3033
sI3049
Vfirm
p3034
sI3050
Vfishy
p3035
sI3051
Vfixtures
p3036
sI3052
Vflight
p3037
sI3053
Vfloating
p3038
sI3054
Vfloats
p3039
sI3055
Vflourless
p3040
sI3056
Vflowing
p3041
sI3057
Vfluffy
p3042
sI3058
Vfluke
p3043
sI3059
Vflush
p3044
sI3060
Vfoodie
p3045
sI3061
Vforce
p3046
sI3062
Vforced
p3047
sI3063
Vforces
p3048
sI3064
Vforgettable
p3049
sI3065
Vforgotten
p3050
sI3066
Vforum
p3051
sI3067
Vforwarding
p3052
sI3068
Vfrequent
p3053
sI3069
Vfrequented
p3054
sI3070
Vfrig
p3055
sI3071
Vfrugal
p3056
sI3072
Vgang
p3057
sI3073
Vgarlicky
p3058
sI3074
Vgary
p3059
sI3075
Vgas
p3060
sI3076
Vgazpacho
p3061
sI3077
Vgladly
p3062
sI3078
Vglance
p3063
sI3079
Vglazed
p3064
sI3080
Vglitchy
p3065
sI3081
Vgloves
p3066
sI3082
Vgod
p3067
sI3083
Vgodzilla
p3068
sI3084
Vgoodnight
p3069
sI3085
Vgoods
p3070
sI3086
Vgooglemaps
p3071
sI3087
Vgoogles
p3072
sI3088
Vgorgeous
p3073
sI3089
Vgps
p3074
sI3090
Vgrabbing
p3075
sI3091
Vgraced
p3076
sI3092
Vgraciously
p3077
sI3093
Vgrade
p3078
sI3094
Vgrateful
p3079
sI3095
Vgray
p3080
sI3096
Vgreedy
p3081
sI3097
Vgreek
p3082
sI3098
Vgrills
p3083
sI3099
Vgristle
p3084
sI3100
Vgrudgingly
p3085
sI3101
Vgrumpy
p3086
sI3102
Vguilty
p3087
sI3103
Vhabitat
p3088
sI3104
Vhalfway
p3089
sI3105
Vhall
p3090
sI3106
Vhandling
p3091
sI3107
Vhanging
p3092
sI3108
Vhangover
p3093
sI3109
Vhappening
p3094
sI3110
Vhappier
p3095
sI3111
Vhart
p3096
sI3112
Vhat
p3097
sI3113
Vhawk
p3098
sI3114
Vheadlock
p3099
sI3115
Vhearing
p3100
sI3116
Vheartiness
p3101
sI3117
Vhectic
p3102
sI3118
Vheld
p3103
sI3119
Vherb
p3104
sI3120
Vhesitant
p3105
sI3121
Vhesitation
p3106
sI3122
Vhi
p3107
sI3123
Vhibiscus
p3108
sI3124
Vhike
p3109
sI3125
Vhipste
p3110
sI3126
Vhiring
p3111
sI3127
Vhodgepodge
p3112
sI3128
Vholding
p3113
sI3129
Vhomestyle
p3114
sI3130
Vhonored
p3115
sI3131
Vhood
p3116
sI3132
Vhooter
p3117
sI3133
Vhop
p3118
sI3134
Vhorendous
p3119
sI3135
Vhorribly
p3120
sI3136
Vhorsechit
p3121
sI3137
Vhospital
p3122
sI3138
Vhostes
p3123
sI3139
Vhoter
p3124
sI3140
Vhourly
p3125
sI3141
Vhousekeeping
p3126
sI3142
Vhuff
p3127
sI3143
Vhugely
p3128
sI3144
Vhuman
p3129
sI3145
Vhurried
p3130
sI3146
Vhurt
p3131
sI3147
Vhusbands
p3132
sI3148
Vhushpuppy
p3133
sI3149
Vhyped
p3134
sI3150
Viceburg
p3135
sI3151
Vicecream
p3136
sI3152
Videas
p3137
sI3153
Videntity
p3138
sI3154
Vidiots
p3139
sI3155
Vidle
p3140
sI3156
Vie
p3141
sI3157
Viffy
p3142
sI3158
Vignoring
p3143
sI3159
Vil
p3144
sI3160
Vimmense
p3145
sI3161
Vinch
p3146
sI3162
Vinclement
p3147
sI3163
Vincompetent
p3148
sI3164
Vinconvenient
p3149
sI3165
Vincounter
p3150
sI3166
Vindeed
p3151
sI3167
Vinexpensive
p3152
sI3168
Vinexperienced
p3153
sI3169
Vinfact
p3154
sI3170
Vinferior
p3155
sI3171
Vinfuriated
p3156
sI3172
Vinnitentive
p3157
sI3173
Vinnovative
p3158
sI3174
Vinstances
p3159
sI3175
Vintentionally
p3160
sI3176
Vinteracted
p3161
sI3177
Vinterpretations
p3162
sI3178
Vinterrupted
p3163
sI3179
Vinvestors
p3164
sI3180
Vinvolved
p3165
sI3181
Vitaliana
p3166
sI3182
Vjager
p3167
sI3183
Vjak
p3168
sI3184
Vjalapenos
p3169
sI3185
Vjambalaya
p3170
sI3186
Vjamie
p3171
sI3187
Vjc
p3172
sI3188
Vjelly
p3173
sI3189
Vjoh
p3174
sI3190
Vjohnston
p3175
sI3191
Vjummy
p3176
sI3192
Vjut
p3177
sI3193
Vkalamata
p3178
sI3194
Vkansas
p3179
sI3195
Vkareem
p3180
sI3196
Vkart
p3181
sI3197
Vkebab
p3182
sI3198
Vkentucky
p3183
sI3199
Vkim
p3184
sI3200
Vkin
p3185
sI3201
Vkitchens
p3186
sI3202
Vkitschy
p3187
sI3203
Vknosh
p3188
sI3204
Vkorey
p3189
sI3205
Vlame
p3190
sI3206
Vlatter
p3191
sI3207
Vlattice
p3192
sI3208
Vlavender
p3193
sI3209
Vlead
p3194
sI3210
Vleaf
p3195
sI3211
Vlearn
p3196
sI3212
Vleaves
p3197
sI3213
Vled
p3198
sI3214
Vlemons
p3199
sI3215
Vlenient
p3200
sI3216
Vlethargic
p3201
sI3217
Vlevine
p3202
sI3218
Vlikes
p3203
sI3219
Vliner
p3204
sI3220
Vliquors
p3205
sI3221
Vlogged
p3206
sI3222
Vlongest
p3207
sI3223
Vlonghorn
p3208
sI3224
Vlose
p3209
sI3225
Vloss
p3210
sI3226
Vlosses
p3211
sI3227
Vloyalist
p3212
sI3228
Vlynette
p3213
sI3229
Vmacaron
p3214
sI3230
Vmacaroons
p3215
sI3231
Vmagically
p3216
sI3232
Vmajid
p3217
sI3233
Vmajor
p3218
sI3234
Vmalls
p3219
sI3235
Vmanage
p3220
sI3236
Vmandy
p3221
sI3237
Vmangement
p3222
sI3238
Vmanhandled
p3223
sI3239
Vmaple
p3224
sI3240
Vmarijuana
p3225
sI3241
Vmark
p3226
sI3242
Vmarked
p3227
sI3243
Vmarlon
p3228
sI3244
Vmartini
p3229
sI3245
Vmask
p3230
sI3246
Vmaster
p3231
sI3247
Vmatching
p3232
sI3248
Vmathews
p3233
sI3249
Vmaximize
p3234
sI3250
Vmaximum
p3235
sI3251
Vmayo
p3236
sI3252
Vmeager
p3237
sI3253
Vmeaning
p3238
sI3254
Vmeasly
p3239
sI3255
Vmedicine
p3240
sI3256
Vmee
p3241
sI3257
Vmeetup
p3242
sI3258
Vmellow
p3243
sI3259
Vmemory
p3244
sI3260
Vmerlo
p3245
sI3261
Vmessage
p3246
sI3262
Vmi
p3247
sI3263
Vmichael
p3248
sI3264
Vmicrowaved
p3249
sI3265
Vmighty
p3250
sI3266
Vmiguel
p3251
sI3267
Vministry
p3252
sI3268
Vminy
p3253
sI3269
Vmiraculously
p3254
sI3270
Vmisbehaving
p3255
sI3271
Vmisfortune
p3256
sI3272
Vmissed
p3257
sI3273
Vmontford
p3258
sI3274
Vmorons
p3259
sI3275
Vmoscow
p3260
sI3276
Vmoua
p3261
sI3277
Vmountain
p3262
sI3278
Vmuffaletta
p3263
sI3279
Vmugs
p3264
sI3280
Vmule
p3265
sI3281
Vmunch
p3266
sI3282
Vmurphy
p3267
sI3283
Vmuscles
p3268
sI3284
Vmussells
p3269
sI3285
Vmystery
p3270
sI3286
Vnaans
p3271
sI3287
Vnaming
p3272
sI3288
Vnapoleon
p3273
sI3289
Vnapolito
p3274
sI3290
Vnauseated
p3275
sI3291
Vneeding
p3276
sI3292
Vneighborhoods
p3277
sI3293
Vneighboring
p3278
sI3294
Vnet
p3279
sI3295
Vnewbie
p3280
sI3296
Vnews
p3281
sI3297
Vnighttime
p3282
sI3298
Vnonetheless
p3283
sI3299
Vnope
p3284
sI3300
Vnorm
p3285
sI3301
Vnotably
p3286
sI3302
Vnoted
p3287
sI3303
Vnotion
p3288
sI3304
Vnyc
p3289
sI3305
Voat
p3290
sI3306
Vobama
p3291
sI3307
Vobesity
p3292
sI3308
Vobnoxious
p3293
sI3309
Voctopus
p3294
sI3310
Vofficer
p3295
sI3311
Vofficially
p3296
sI3312
Voils
p3297
sI3313
Voily
p3298
sI3314
Vomelet
p3299
sI3315
Voperating
p3300
sI3316
Vopposed
p3301
sI3317
Vopps
p3302
sI3318
Vouting
p3303
sI3319
Voutreach
p3304
sI3320
Voven
p3305
sI3321
Voverdone
p3306
sI3322
Voverhear
p3307
sI3323
Voverlooked
p3308
sI3324
Voversold
p3309
sI3325
Voverstate
p3310
sI3326
Vovertime
p3311
sI3327
Vpager
p3312
sI3328
Vpal
p3313
sI3329
Vpalmiers
p3314
sI3330
Vpanara
p3315
sI3331
Vpaneer
p3316
sI3332
Vpaner
p3317
sI3333
Vpanhandler
p3318
sI3334
Vpanini
p3319
sI3335
Vpaninis
p3320
sI3336
Vpanther
p3321
sI3337
Vpartner
p3322
sI3338
Vparts
p3323
sI3339
Vpaste
p3324
sI3340
Vpatient
p3325
sI3341
Vpeacefully
p3326
sI3342
Vpeacock
p3327
sI3343
Vpeels
p3328
sI3344
Vperformance
p3329
sI3345
Vperiodically
p3330
sI3346
Vpermanent
p3331
sI3347
Vperso
p3332
sI3348
Vperturbed
p3333
sI3349
Vphenominal
p3334
sI3350
Vphilosophy
p3335
sI3351
Vphon
p3336
sI3352
Vphones
p3337
sI3353
Vphuck
p3338
sI3354
Vphysical
p3339
sI3355
Vpic
p3340
sI3356
Vpico
p3341
sI3357
Vpics
p3342
sI3358
Vpig
p3343
sI3359
Vpiled
p3344
sI3360
Vpillar
p3345
sI3361
Vpinini
p3346
sI3362
Vpiping
p3347
sI3363
Vpit
p3348
sI3364
Vpitch
p3349
sI3365
Vpittsburgh
p3350
sI3366
Vplacards
p3351
sI3367
Vplacid
p3352
sI3368
Vplanning
p3353
sI3369
Vplant
p3354
sI3370
Vplating
p3355
sI3371
Vpleasure
p3356
sI3372
Vplywood
p3357
sI3373
Vpop
p3358
sI3374
Vportobello
p3359
sI3375
Vposh
p3360
sI3376
Vpre
p3361
sI3377
Vpreconceived
p3362
sI3378
Vpremises
p3363
sI3379
Vprepare
p3364
sI3380
Vprepated
p3365
sI3381
Vpresence
p3366
sI3382
Vpreviously
p3367
sI3383
Vprofits
p3368
sI3384
Vpromote
p3369
sI3385
Vpuck
p3370
sI3386
Vpuff
p3371
sI3387
Vpulling
p3372
sI3388
Vpurpose
p3373
sI3389
Vquestionable
p3374
sI3390
Vquinoa
p3375
sI3391
Vquit
p3376
sI3392
Vrace
p3377
sI3393
Vrafters
p3378
sI3394
Vram
p3379
sI3395
Vrammed
p3380
sI3396
Vrampant
p3381
sI3397
Vrea
p3382
sI3398
Vrearranged
p3383
sI3399
Vreasons
p3384
sI3400
Vrecall
p3385
sI3401
Vreccomend
p3386
sI3402
Vreccomended
p3387
sI3403
Vrecollection
p3388
sI3404
Vrecommending
p3389
sI3405
Vrecook
p3390
sI3406
Vrecords
p3391
sI3407
Vrecruitment
p3392
sI3408
Vredone
p3393
sI3409
Vreeses
p3394
sI3410
Vrefresh
p3395
sI3411
Vregalia
p3396
sI3412
Vreggae
p3397
sI3413
Vregional
p3398
sI3414
Vregrets
p3399
sI3415
Vregulars
p3400
sI3416
Vreheat
p3401
sI3417
Vreigns
p3402
sI3418
Vrelates
p3403
sI3419
Vrelatively
p3404
sI3420
Vremixes
p3405
sI3421
Vrenovations
p3406
sI3422
Vreplaced
p3407
sI3423
Vresearched
p3408
sI3424
Vresemble
p3409
sI3425
Vreserving
p3410
sI3426
Vresist
p3411
sI3427
Vresistance
p3412
sI3428
Vrespective
p3413
sI3429
Vrestraunt
p3414
sI3430
Vrestraunte
p3415
sI3431
Vrestrictions
p3416
sI3432
Vresturants
p3417
sI3433
Vretired
p3418
sI3434
Vrevealing
p3419
sI3435
Vride
p3420
sI3436
Vrings
p3421
sI3437
Vrise
p3422
sI3438
Vrisotto
p3423
sI3439
Vro
p3424
sI3440
Vroastbeef
p3425
sI3441
Vroasted
p3426
sI3442
Vrobb
p3427
sI3443
Vrockefeller
p3428
sI3444
Vrocky
p3429
sI3445
Vrode
p3430
sI3446
Vroger
p3431
sI3447
Vrookie
p3432
sI3448
Vrotten
p3433
sI3449
Vrounds
p3434
sI3450
Vrt
p3435
sI3451
Vrub
p3436
sI3452
Vrudest
p3437
sI3453
Vsalmonella
p3438
sI3454
Vsam
p3439
sI3455
Vsample
p3440
sI3456
Vsan
p3441
sI3457
Vsand
p3442
sI3458
Vsandy
p3443
sI3459
Vsarcasm
p3444
sI3460
Vsatisfy
p3445
sI3461
Vsaving
p3446
sI3462
Vsbarro
p3447
sI3463
Vscale
p3448
sI3464
Vschedule
p3449
sI3465
Vscramble
p3450
sI3466
Vscratch
p3451
sI3467
Vscript
p3452
sI3468
Vseasonally
p3453
sI3469
Vsecret
p3454
sI3470
Vsecuirty
p3455
sI3471
Vseed
p3456
sI3472
Vsees
p3457
sI3473
Vseinfeld
p3458
sI3474
Vself
p3459
sI3475
Vserves
p3460
sI3476
Vsets
p3461
sI3477
Vseverely
p3462
sI3478
Vsex
p3463
sI3479
Vsexist
p3464
sI3480
Vshape
p3465
sI3481
Vsharp
p3466
sI3482
Vsheets
p3467
sI3483
Vshipping
p3468
sI3484
Vshl
p3469
sI3485
Vshoestring
p3470
sI3486
Vshooting
p3471
sI3487
Vshootout
p3472
sI3488
Vshopped
p3473
sI3489
Vshopper
p3474
sI3490
Vshortcake
p3475
sI3491
Vshoved
p3476
sI3492
Vshower
p3477
sI3493
Vsidewalks
p3478
sI3494
Vsimplyto
p3479
sI3495
Vsketchy
p3480
sI3496
Vsloughs
p3481
sI3497
Vsmoothies
p3482
sI3498
Vsnug
p3483
sI3499
Vsoap
p3484
sI3500
Vsob
p3485
sI3501
Vsolidly
p3486
sI3502
Vsongs
p3487
sI3503
Vsophisticated
p3488
sI3504
Vsourness
p3489
sI3505
Vsours
p3490
sI3506
Vspeakers
p3491
sI3507
Vspoken
p3492
sI3508
Vsporting
p3493
sI3509
Vspotty
p3494
sI3510
Vsprings
p3495
sI3511
Vsquare
p3496
sI3512
Vstains
p3497
sI3513
Vstandardized
p3498
sI3514
Vstands
p3499
sI3515
Vstaples
p3500
sI3516
Vstarts
p3501
sI3517
Vstarving
p3502
sI3518
Vsteakhouses
p3503
sI3519
Vsteamed
p3504
sI3520
Vsteep
p3505
sI3521
Vstems
p3506
sI3522
Vstew
p3507
sI3523
Vsticking
p3508
sI3524
Vstools
p3509
sI3525
Vstraight
p3510
sI3526
Vstraw
p3511
sI3527
Vstrawberries
p3512
sI3528
Vstressed
p3513
sI3529
Vstressful
p3514
sI3530
Vstrikes
p3515
sI3531
Vstringy
p3516
sI3532
Vstudy
p3517
sI3533
Vstuttering
p3518
sI3534
Vsubstitutions
p3519
sI3535
Vsubtract
p3520
sI3536
Vsuddenly
p3521
sI3537
Vsufficed
p3522
sI3538
Vsuggestive
p3523
sI3539
Vsuit
p3524
sI3540
Vsun
p3525
sI3541
Vsunlight
p3526
sI3542
Vsuperficially
p3527
sI3543
Vsurely
p3528
sI3544
Vsurfaces
p3529
sI3545
Vsusa
p3530
sI3546
Vsuspect
p3531
sI3547
Vswamped
p3532
sI3548
Vswill
p3533
sI3549
Vswitch
p3534
sI3550
Vtabouli
p3535
sI3551
Vtalapia
p3536
sI3552
Vtammy
p3537
sI3553
Vtape
p3538
sI3554
Vtappings
p3539
sI3555
Vtarter
p3540
sI3556
Vtarts
p3541
sI3557
Vtattoos
p3542
sI3558
Vteach
p3543
sI3559
Vteams
p3544
sI3560
Vteenager
p3545
sI3561
Vtemp
p3546
sI3562
Vtemps
p3547
sI3563
Vteriyaki
p3548
sI3564
Vterm
p3549
sI3565
Vthankful
p3550
sI3566
Vthankfully
p3551
sI3567
Vthar
p3552
sI3568
Vthay
p3553
sI3569
Vtheatre
p3554
sI3570
Vthec
p3555
sI3571
Vtheirs
p3556
sI3572
Vtheory
p3557
sI3573
Vtherefore
p3558
sI3574
Vthr
p3559
sI3575
Vthreatening
p3560
sI3576
Vthug
p3561
sI3577
Vthuggery
p3562
sI3578
Vthugs
p3563
sI3579
Vtimey
p3564
sI3580
Vtimw
p3565
sI3581
Vtint
p3566
sI3582
Vtiramisu
p3567
sI3583
Vtl
p3568
sI3584
Vtoasted
p3569
sI3585
Vtoe
p3570
sI3586
Vtome
p3571
sI3587
Vtomorrow
p3572
sI3588
Vtooooo
p3573
sI3589
Vtorrid
p3574
sI3590
Vtoss
p3575
sI3591
Vtrace
p3576
sI3592
Vtrade
p3577
sI3593
Vtray
p3578
sI3594
Vtreasures
p3579
sI3595
Vtricky
p3580
sI3596
Vtries
p3581
sI3597
Vtriple
p3582
sI3598
Vtruely
p3583
sI3599
Vtrys
p3584
sI3600
Vtsp
p3585
sI3601
Vtthem
p3586
sI3602
Vtunes
p3587
sI3603
Vturk
p3588
sI3604
Vturnover
p3589
sI3605
Vugh
p3590
sI3606
Vuk
p3591
sI3607
Vunanticipated
p3592
sI3608
Vunappealing
p3593
sI3609
Vuncomfortably
p3594
sI3610
Vuncooked
p3595
sI3611
Vunderseasoned
p3596
sI3612
Vunderwhelmed
p3597
sI3613
Vunderwhelming
p3598
sI3614
Vunenthusiastic
p3599
sI3615
Vuneven
p3600
sI3616
Vungreasy
p3601
sI3617
Vunhappy
p3602
sI3618
Vuninspiring
p3603
sI3619
Vuniquely
p3604
sI3620
Vunlikely
p3605
sI3621
Vunmarried
p3606
sI3622
Vunparalleled
p3607
sI3623
Vunseasoned
p3608
sI3624
Vunseated
p3609
sI3625
Vunwelcoming
p3610
sI3626
Vupcycled
p3611
sI3627
Vupdates
p3612
sI3628
Vupgraded
p3613
sI3629
Vuseless
p3614
sI3630
Vvaldez
p3615
sI3631
Vvalidate
p3616
sI3632
Vvalued
p3617
sI3633
Vvictori
p3618
sI3634
Vvideo
p3619
sI3635
Vvoid
p3620
sI3636
Vvomit
p3621
sI3637
Vvoters
p3622
sI3638
Vvouchers
p3623
sI3639
Vwasn
p3624
sI3640
Vwatchies
p3625
sI3641
Vwate
p3626
sI3642
Vwaze
p3627
sI3643
Vwelcomed
p3628
sI3644
Vwet
p3629
sI3645
Vwheat
p3630
sI3646
Vwi
p3631
sI3647
Vwifi
p3632
sI3648
Vwin
p3633
sI3649
Vwindows
p3634
sI3650
Vwindshield
p3635
sI3651
Vwindshields
p3636
sI3652
Vwise
p3637
sI3653
Vwityh
p3638
sI3654
Vwoke
p3639
sI3655
Vwont
p3640
sI3656
Vwontons
p3641
sI3657
Vworkplace
p3642
sI3658
Vworthless
p3643
sI3659
Vworthy
p3644
sI3660
Vwouldnt
p3645
sI3661
Vwoun
p3646
sI3662
Vwoupd
p3647
sI3663
Vwowed
p3648
sI3664
Vyellowtail
p3649
sI3665
Vyelp
p3650
sI3666
Vyo
p3651
sI3667
Vzach
p3652
sI3668
Vzso
p3653
sI3669
V01pm
p3654
sI3670
V05
p3655
sI3671
V10oz
p3656
sI3672
V140
p3657
sI3673
V1511
p3658
sI3674
V1600
p3659
sI3675
V17th
p3660
sI3676
V18th
p3661
sI3677
V18yr
p3662
sI3678
V1940
p3663
sI3679
V1hour
p3664
sI3680
V1p
p3665
sI3681
V2000
p3666
sI3682
V2008
p3667
sI3683
V26
p3668
sI3684
V2pm
p3669
sI3685
V2stars
p3670
sI3686
V32
p3671
sI3687
V35forsteak
p3672
sI3688
V36
p3673
sI3689
V3liter
p3674
sI3690
V3oz
p3675
sI3691
V3pints
p3676
sI3692
V400
p3677
sI3693
V46
p3678
sI3694
V4am
p3679
sI3695
V4pm
p3680
sI3696
V4x
p3681
sI3697
V51
p3682
sI3698
V53
p3683
sI3699
V59pm
p3684
sI3700
V73
p3685
sI3701
V88
p3686
sI3702
V8pm
p3687
sI3703
Vaaron
p3688
sI3704
Vabrasive
p3689
sI3705
Vabsence
p3690
sI3706
Vaccents
p3691
sI3707
Vaccept
p3692
sI3708
Vaccidental
p3693
sI3709
Vaccidently
p3694
sI3710
Vaccidents
p3695
sI3711
Vaccomidations
p3696
sI3712
Vaccommodates
p3697
sI3713
Vaccommodations
p3698
sI3714
Vaccompaniment
p3699
sI3715
Vaccustomed
p3700
sI3716
Vached
p3701
sI3717
Vacidic
p3702
sI3718
Vacs
p3703
sI3719
Vacting
p3704
sI3720
Vactive
p3705
sI3721
Vactivity
p3706
sI3722
Vada
p3707
sI3723
Vaddictive
p3708
sI3724
Vadina
p3709
sI3725
Vadjust
p3710
sI3726
Vadore
p3711
sI3727
Vadvantage
p3712
sI3728
Vadventure
p3713
sI3729
Vadvert
p3714
sI3730
Vadvise
p3715
sI3731
Vaffecting
p3716
sI3732
Vafraid
p3717
sI3733
Vafrican
p3718
sI3734
Vagainst
p3719
sI3735
Vages
p3720
sI3736
Vaggravating
p3721
sI3737
Vaggressive
p3722
sI3738
Vaight
p3723
sI3739
Vaim
p3724
sI3740
Vaioli
p3725
sI3741
Vairliner
p3726
sI3742
Vairy
p3727
sI3743
Vala
p3728
sI3744
Valert
p3729
sI3745
Valexander
p3730
sI3746
Valfredo
p3731
sI3747
Vallergies
p3732
sI3748
Vallie
p3733
sI3749
Valllll
p3734
sI3750
Vallow
p3735
sI3751
Vallowing
p3736
sI3752
Vallows
p3737
sI3753
Valmond
p3738
sI3754
Valternative
p3739
sI3755
Valwasy
p3740
sI3756
Vamelia
p3741
sI3757
Vamerica
p3742
sI3758
Vamex
p3743
sI3759
Vamounts
p3744
sI3760
Vamused
p3745
sI3761
Vanastasia
p3746
sI3762
Vandrew
p3747
sI3763
Vanimals
p3748
sI3764
Vanniversaries
p3749
sI3765
Vannounce
p3750
sI3766
Vannounced
p3751
sI3767
Vanomoly
p3752
sI3768
Vantarctica
p3753
sI3769
Vapart
p3754
sI3770
Vapfelstrudel
p3755
sI3771
Vapologe
p3756
sI3772
Vapologetic
p3757
sI3773
Vapologies
p3758
sI3774
Vapologizing
p3759
sI3775
Vappalled
p3760
sI3776
Vappearance
p3761
sI3777
Vappertizer
p3762
sI3778
Vapplause
p3763
sI3779
Vapple
p3764
sI3780
Vapplication
p3765
sI3781
Vappointed
p3766
sI3782
Vappointment
p3767
sI3783
Vappraisers
p3768
sI3784
Vappreciation
p3769
sI3785
Vapproach
p3770
sI3786
Vappropriately
p3771
sI3787
Varbors
p3772
sI3788
Vargue
p3773
sI3789
Vargued
p3774
sI3790
Varms
p3775
sI3791
Varrives
p3776
sI3792
Vartichoke
p3777
sI3793
Vartificial
p3778
sI3794
Vasap
p3779
sI3795
Vasbury
p3780
sI3796
Vashley
p3781
sI3797
Vasians
p3782
sI3798
Vasparagi
p3783
sI3799
Vass
p3784
sI3800
Vassaulted
p3785
sI3801
Vasset
p3786
sI3802
Vassorted
p3787
sI3803
Vassure
p3788
sI3804
Vassured
p3789
sI3805
Vastounding
p3790
sI3806
Vateak
p3791
sI3807
Vatheir
p3792
sI3808
Vattending
p3793
sI3809
Vattest
p3794
sI3810
Vautomatic
p3795
sI3811
Vautomotive
p3796
sI3812
Vavg
p3797
sI3813
Vaward
p3798
sI3814
Vawesone
p3799
sI3815
Vawsome
p3800
sI3816
Vayden
p3801
sI3817
Vbacking
p3802
sI3818
Vbacklot
p3803
sI3819
Vbalanced
p3804
sI3820
Vballantyne
p3805
sI3821
Vbangkok
p3806
sI3822
Vbanks
p3807
sI3823
Vbarclay
p3808
sI3824
Vbarking
p3809
sI3825
Vbartende
p3810
sI3826
Vbc
p3811
sI3827
Vbeach
p3812
sI3828
Vbeaten
p3813
sI3829
Vbedroom
p3814
sI3830
Vbehaved
p3815
sI3831
Vbelow
p3816
sI3832
Vbelt
p3817
sI3833
Vben
p3818
sI3834
Vbenches
p3819
sI3835
Vbenefit
p3820
sI3836
Vbet
p3821
sI3837
Vbias
p3822
sI3838
Vbid
p3823
sI3839
Vbiiiig
p3824
sI3840
Vbike
p3825
sI3841
Vbikes
p3826
sI3842
Vbird
p3827
sI3843
Vbirdsong
p3828
sI3844
Vbirthdays
p3829
sI3845
Vbison
p3830
sI3846
Vbisque
p3831
sI3847
Vblackberry
p3832
sI3848
Vblackhawk
p3833
sI3849
Vblaine
p3834
sI3850
Vblamed
p3835
sI3851
Vblast
p3836
sI3852
Vblasting
p3837
sI3853
Vblazing
p3838
sI3854
Vblew
p3839
sI3855
Vblock
p3840
sI3856
Vblocks
p3841
sI3857
Vblond
p3842
sI3858
Vblurb
p3843
sI3859
Vblush
p3844
sI3860
Vbogo
p3845
sI3861
Vbolognese
p3846
sI3862
Vboneless
p3847
sI3863
Vbonus
p3848
sI3864
Vbooks
p3849
sI3865
Vbooted
p3850
sI3866
Vboracha
p3851
sI3867
Vborn
p3852
sI3868
Vbothering
p3853
sI3869
Vbottomless
p3854
sI3870
Vboyfrien
p3855
sI3871
Vbragged
p3856
sI3872
Vbrain
p3857
sI3873
Vbrats
p3858
sI3874
Vbreading
p3859
sI3875
Vbreads
p3860
sI3876
Vbreaking
p3861
sI3877
Vbreasts
p3862
sI3878
Vbreezy
p3863
sI3879
Vbrento
p3864
sI3880
Vbrianna
p3865
sI3881
Vbrid
p3866
sI3882
Vbridge
p3867
sI3883
Vbrilliant
p3868
sI3884
Vbrioche
p3869
sI3885
Vbritish
p3870
sI3886
Vbrixx
p3871
sI3887
Vbruchetta
p3872
sI3888
Vbrushing
p3873
sI3889
Vbrussels
p3874
sI3890
Vbryan
p3875
sI3891
Vbubble
p3876
sI3892
Vbuddies
p3877
sI3893
Vbuffoons
p3878
sI3894
Vburgerushi
p3879
sI3895
Vbusinesses
p3880
sI3896
Vbussing
p3881
sI3897
Vbust
p3882
sI3898
Vbusted
p3883
sI3899
Vbuttered
p3884
sI3900
Vbutton
p3885
sI3901
Vbuttoned
p3886
sI3902
Vc
sI3903
Vcab
p3887
sI3904
Vcackling
p3888
sI3905
Vcaiprinhia
p3889
sI3906
Vcalls
p3890
sI3907
Vcalmly
p3891
sI3908
Vcamel
p3892
sI3909
Vcamille
p3893
sI3910
Vcanned
p3894
sI3911
Vcaper
p3895
sI3912
Vcapice
p3896
sI3913
Vcappuccino
p3897
sI3914
Vcarbonara
p3898
sI3915
Vcardboard
p3899
sI3916
Vcards
p3900
sI3917
Vcargot
p3901
sI3918
Vcarne
p3902
sI3919
Vcarnivore
p3903
sI3920
Vcarrabba
p3904
sI3921
Vcarrots
p3905
sI3922
Vcarrout
p3906
sI3923
Vcarry
p3907
sI3924
Vcart
p3908
sI3925
Vcarton
p3909
sI3926
Vcasey
p3910
sI3927
Vcasserole
p3911
sI3928
Vcatching
p3912
sI3929
Vcatered
p3913
sI3930
Vcaterpillar
p3914
sI3931
Vcatherin
p3915
sI3932
Vcattle
p3916
sI3933
Vcaused
p3917
sI3934
Vcautious
p3918
sI3935
Vceasar
p3919
sI3936
Vceiling
p3920
sI3937
Vcent
p3921
sI3938
Vcertain
p3922
sI3939
Vceviche
p3923
sI3940
Vch
p3924
sI3941
Vchaat
p3925
sI3942
Vchalky
p3926
sI3943
Vchampagne
p3927
sI3944
Vchao
p3928
sI3945
Vcharcuterie
p3929
sI3946
Vchard
p3930
sI3947
Vcharm
p3931
sI3948
Vcharme
p3932
sI3949
Vcharotte
p3933
sI3950
Vchatted
p3934
sI3951
Vchatty
p3935
sI3952
Vcheating
p3936
sI3953
Vcheckered
p3937
sI3954
Vchedda
p3938
sI3955
Vcheesesteak
p3939
sI3956
Vcheesesteaks
p3940
sI3957
Vcheesy
p3941
sI3958
Vcherished
p3942
sI3959
Vchest
p3943
sI3960
Vchewey
p3944
sI3961
Vchimichanga
p3945
sI3962
Vchip
p3946
sI3963
Vchit
p3947
sI3964
Vcho8ces
p3948
sI3965
Vchoosing
p3949
sI3966
Vchop
p3950
sI3967
Vchore
p3951
sI3968
Vchrome
p3952
sI3969
Vchunk
p3953
sI3970
Vchurch
p3954
sI3971
Vchz
p3955
sI3972
Vciabatta
p3956
sI3973
Vcinnabare
p3957
sI3974
Vcirculating
p3958
sI3975
Vcit
p3959
sI3976
Vcitrus
p3960
sI3977
Vcitys
p3961
sI3978
Vcityscape
p3962
sI3979
Vclarify
p3963
sI3980
Vcleanup
p3964
sI3981
Vcleared
p3965
sI3982
Vclearers
p3966
sI3983
Vclearing
p3967
sI3984
Vclever
p3968
sI3985
Vclient
p3969
sI3986
Vcliff
p3970
sI3987
Vclock
p3971
sI3988
Vclockwork
p3972
sI3989
Vclue
p3973
sI3990
Vcoaches
p3974
sI3991
Vcobb
p3975
sI3992
Vcole
p3976
sI3993
Vcollapse
p3977
sI3994
Vcoma
p3978
sI3995
Vcombinations
p3979
sI3996
Vcommendable
p3980
sI3997
Vcommercial
p3981
sI3998
Vcommunication
p3982
sI3999
Vcommuting
p3983
sI4000
Vcomp
p3984
sI4001
Vcomparison
p3985
sI4002
Vcompensate
p3986
sI4003
Vcompensation
p3987
sI4004
Vcompetency
p3988
sI4005
Vcompetitors
p3989
sI4006
Vcomplicated
p3990
sI4007
Vcompliments
p3991
sI4008
Vcomprehensively
p3992
sI4009
Vcomprised
p3993
sI4010
Vcompute
p3994
sI4011
Vcomputers
p3995
sI4012
Vconcentrate
p3996
sI4013
Vconcierge
p3997
sI4014
Vconcoctions
p3998
sI4015
Vconcord
p3999
sI4016
Vconcur
p4000
sI4017
Vcondiments
p4001
sI4018
Vconfirmed
p4002
sI4019
Vconfusing
p4003
sI4020
Vcongrats
p4004
sI4021
Vconnect
p4005
sI4022
Vconnection
p4006
sI4023
Vconnoisseur
p4007
sI4024
Vconscious
p4008
sI4025
Vconsiderably
p4009
sI4026
Vconsideration
p4010
sI4027
Vconsistant
p4011
sI4028
Vconsists
p4012
sI4029
Vconstant
p4013
sI4030
Vconsuming
p4014
sI4031
Vcontacted
p4015
sI4032
Vcontamination
p4016
sI4033
Vcontents
p4017
sI4034
Vcontinually
p4018
sI4035
Vcontrary
p4019
sI4036
Vcontrol
p4020
sI4037
Vconveniently
p4021
sI4038
Vconversed
p4022
sI4039
Vconvinced
p4023
sI4040
Vcookies
p4024
sI4041
Vcoops
p4025
sI4042
Vcorners
p4026
sI4043
Vcornhole
p4027
sI4044
Vcorp
p4028
sI4045
Vcorrectly
p4029
sI4046
Vcorresponded
p4030
sI4047
Vcosts
p4031
sI4048
Vcostumers
p4032
sI4049
Vcotton
p4033
sI4050
Vcoty
p4034
sI4051
Vcouch
p4035
sI4052
Vcought
p4036
sI4053
Vcourses
p4037
sI4054
Vcouse
p4038
sI4055
Vcrabs
p4039
sI4056
Vcrafts
p4040
sI4057
Vcrammed
p4041
sI4058
Vcrashed
p4042
sI4059
Vcravings
p4043
sI4060
Vcreamy
p4044
sI4061
Vcreated
p4045
sI4062
Vcreativity
p4046
sI4063
Vcrepes
p4047
sI4064
Vcritic
p4048
sI4065
Vcritters
p4049
sI4066
Vcrowds
p4050
sI4067
Vcruising
p4051
sI4068
Vcrumble
p4052
sI4069
Vcrusted
p4053
sI4070
Vcuban
p4054
sI4071
Vculturally
p4055
sI4072
Vculture
p4056
sI4073
Vcust
p4057
sI4074
Vdaddys
p4058
sI4075
Vdaishai
p4059
sI4076
Vdamages
p4060
sI4077
Vdamned
p4061
sI4078
Vdamnit
p4062
sI4079
Vdan
p4063
sI4080
Vdanie
p4064
sI4081
Vdarn
p4065
sI4082
Vdaughte
p4066
sI4083
Vdazey
p4067
sI4084
Vdd
p4068
sI4085
Vdebit
p4069
sI4086
Vdecade
p4070
sI4087
Vdecember
p4071
sI4088
Vdecide?
p4072
sI4089
Vdecides
p4073
sI4090
Vdecision
p4074
sI4091
Vdecisions
p4075
sI4092
Vdecoration
p4076
sI4093
Vdeep
p4077
sI4094
Vdef
p4078
sI4095
Vdeff
p4079
sI4096
Vdefiantly
p4080
sI4097
Vdefinitjy
p4081
sI4098
Vdefinitly
p4082
sI4099
Vdegree
p4083
sI4100
Vdelay
p4084
sI4101
Vdelight
p4085
sI4102
Vdeliverance
p4086
sI4103
Vdemetria
p4087
sI4104
Vdennis
p4088
sI4105
Vdent
p4089
sI4106
Vdeparting
p4090
sI4107
Vdependable
p4091
sI4108
Vdeserving
p4092
sI4109
Vdesperate
p4093
sI4110
Vdetermine
p4094
sI4111
Vdetractors
p4095
sI4112
Vdevices
p4096
sI4113
Vdeviled
p4097
sI4114
Vdevine
p4098
sI4115
Vdiabetics
p4099
sI4116
Vdiagram
p4100
sI4117
Vdial
p4101
sI4118
Vdialect
p4102
sI4119
Vdiamond
p4103
sI4120
Vdiarrhea
p4104
sI4121
Vdidn
p4105
sI4122
Vdifficulty
p4106
sI4123
Vdijon
p4107
sI4124
Vdilemma
p4108
sI4125
Vdilworth
p4109
sI4126
Vdime
p4110
sI4127
Vdimmed
p4111
sI4128
Vdinged
p4112
sI4129
Vdinners
p4113
sI4130
Vdipped
p4114
sI4131
Vdipper
p4115
sI4132
Vdisagreements
p4116
sI4133
Vdisaster
p4117
sI4134
Vdiscount
p4118
sI4135
Vdiscuss
p4119
sI4136
Vdismay
p4120
sI4137
Vdismissive
p4121
sI4138
Vdisorganized
p4122
sI4139
Vdispleased
p4123
sI4140
Vdisregard
p4124
sI4141
Vdissapoint
p4125
sI4142
Vdistastful
p4126
sI4143
Vdistracting
p4127
sI4144
Vdisturbing
p4128
sI4145
Vdisturbingly
p4129
sI4146
Vdizzy
p4130
sI4147
Vdominick
p4131
sI4148
Vdonut
p4132
sI4149
Vdouche
p4133
sI4150
Vdoug
p4134
sI4151
Vdouglas
p4135
sI4152
Vdownright
p4136
sI4153
Vdrawer
p4137
sI4154
Vdrawings
p4138
sI4155
Vdressings
p4139
sI4156
Vdriven
p4140
sI4157
Vdrowning
p4141
sI4158
Vdrunken
p4142
sI4159
Vdude
p4143
sI4160
Vdudes
p4144
sI4161
Vdull
p4145
sI4162
Vdumbblank
p4146
sI4163
Vdunkin
p4147
sI4164
Vdye
p4148
sI4165
Vdying
p4149
sI4166
Vdylan
p4150
sI4167
Vearns
p4151
sI4168
Vearth
p4152
sI4169
Veater
p4153
sI4170
Veaters
p4154
sI4171
Veatin
p4155
sI4172
Veatting
p4156
sI4173
Veconomy
p4157
sI4174
Vedges
p4158
sI4175
Vedmund
p4159
sI4176
Veel
p4160
sI4177
Vefficiently
p4161
sI4178
Vegregious
p4162
sI4179
Velements
p4163
sI4180
Veloped
p4164
sI4181
Vemad
p4165
sI4182
Vemailed
p4166
sI4183
Vemailing
p4167
sI4184
Vembarrassing
p4168
sI4185
Vemilios
p4169
sI4186
Vempathy
p4170
sI4187
Vemphasis
p4171
sI4188
Vemploying
p4172
sI4189
Venable
p4173
sI4190
Vencase
p4174
sI4191
Vencourage
p4175
sI4192
Vengage
p4176
sI4193
Vengaged
p4177
sI4194
Vengland
p4178
sI4195
Venglish
p4179
sI4196
Venjoyably
p4180
sI4197
Venjoying
p4181
sI4198
Ventertaining
p4182
sI4199
Ventirety
p4183
sI4200
Ventitled
p4184
sI4201
Ventitlement
p4185
sI4202
Ventr
p4186
sI4203
Ventries
p4187
sI4204
Ventry
p4188
sI4205
Vepicentre
p4189
sI4206
Vequally
p4190
sI4207
Vequivalent
p4191
sI4208
Veric
p4192
sI4209
Verin
p4193
sI4210
Verror
p4194
sI4211
Vestablishmen
p4195
sI4212
Vetouffee
p4196
sI4213
Vevenly
p4197
sI4214
Vevoo
p4198
sI4215
Vex
p4199
sI4216
Vexamined
p4200
sI4217
Vexample
p4201
sI4218
Vexceeded
p4202
sI4219
Vexcellence
p4203
sI4220
Vexcessively
p4204
sI4221
Vexciting
p4205
sI4222
Vexec
p4206
sI4223
Vexisting
p4207
sI4224
Vexotic
p4208
sI4225
Vexpansive
p4209
sI4226
Vexpectation
p4210
sI4227
Vexpedient
p4211
sI4228
Vexplored
p4212
sI4229
Vexploring
p4213
sI4230
Vexpress
p4214
sI4231
Vexquisite
p4215
sI4232
Vextensive
p4216
sI4233
Vextensively
p4217
sI4234
Vextraordinary
p4218
sI4235
Veye
p4219
sI4236
Vfajitas
p4220
sI4237
Vfake
p4221
sI4238
Vfall
p4222
sI4239
Vfallen
p4223
sI4240
Vfans
p4224
sI4241
Vfarm
p4225
sI4242
Vfarmhouse
p4226
sI4243
Vfarnsworth
p4227
sI4244
Vfashioned
p4228
sI4245
Vfatal
p4229
sI4246
Vfathers
p4230
sI4247
Vfav
p4231
sI4248
Vfavs
p4232
sI4249
Vfeature
p4233
sI4250
Vfeaturing
p4234
sI4251
Vfed
p4235
sI4252
Vfeeble
p4236
sI4253
Vfeedback
p4237
sI4254
Vfeelings
p4238
sI4255
Vfenwic
p4239
sI4256
Vff
p4240
sI4257
Vfiance
p4241
sI4258
Vfighting
p4242
sI4259
Vfights
p4243
sI4260
Vfile
p4244
sI4261
Vfiled
p4245
sI4262
Vfilets
p4246
sI4263
Vfiletto
p4247
sI4264
Vfinal
p4248
sI4265
Vfirebirds
p4249
sI4266
Vfirecracker
p4250
sI4267
Vfirehouse
p4251
sI4268
Vfirstly
p4252
sI4269
Vfitness
p4253
sI4270
Vfixing
p4254
sI4271
Vflaky
p4255
sI4272
Vflare
p4256
sI4273
Vflavored
p4257
sI4274
Vflavour
p4258
sI4275
Vflawed
p4259
sI4276
Vfling
p4260
sI4277
Vfloat
p4261
sI4278
Vfloppy
p4262
sI4279
Vfocused
p4263
sI4280
Vfocusing
p4264
sI4281
Vfogo
p4265
sI4282
Vfolded
p4266
sI4283
Vfolk
p4267
sI4284
Vfollowed
p4268
sI4285
Vfond
p4269
sI4286
Vfondue
p4270
sI4287
Vfoo
p4271
sI4288
Vfooling
p4272
sI4289
Vfore
p4273
sI4290
Vforgetful
p4274
sI4291
Vforgivable
p4275
sI4292
Vforgoing
p4276
sI4293
Vform
p4277
sI4294
Vfortunately
p4278
sI4295
Vfoster
p4279
sI4296
Vfreakin
p4280
sI4297
Vfreaks
p4281
sI4298
Vfrequents
p4282
sI4299
Vfreshest
p4283
sI4300
Vfridays
p4284
sI4301
Vfridge
p4285
sI4302
Vfrie
p4286
sI4303
Vfrien
p4287
sI4304
Vfrier
p4288
sI4305
Vfrites
p4289
sI4306
Vfritta
p4290
sI4307
Vfromy
p4291
sI4308
Vfrosting
p4292
sI4309
Vfruits
p4293
sI4310
Vfruity
p4294
sI4311
Vfrustrating
p4295
sI4312
Vfrustration
p4296
sI4313
Vfryer
p4297
sI4314
Vft
p4298
sI4315
Vfucked
p4299
sI4316
Vfuddruckers
p4300
sI4317
Vfudge
p4301
sI4318
Vfuel
p4302
sI4319
Vfully
p4303
sI4320
Vfunds
p4304
sI4321
Vfusion
p4305
sI4322
Vfuss
p4306
sI4323
Vg
sI4324
Vgallery
p4307
sI4325
Vgalls
p4308
sI4326
Vgarage
p4309
sI4327
Vgarbage
p4310
sI4328
Vgarnish
p4311
sI4329
Vgear
p4312
sI4330
Vgelatin
p4313
sI4331
Vgenerously
p4314
sI4332
Vgeorge
p4315
sI4333
Vgiacomos
p4316
sI4334
Vgifts
p4317
sI4335
Vglanced
p4318
sI4336
Vglaze
p4319
sI4337
Vglorified
p4320
sI4338
Vglucose
p4321
sI4339
Vgluttonous
p4322
sI4340
Vgobhi
p4323
sI4341
Vgolly
p4324
sI4342
Vgoodbye
p4325
sI4343
Vgooey
p4326
sI4344
Vgoog
p4327
sI4345
Vgooies
p4328
sI4346
Vgr
p4329
sI4347
Vgrabs
p4330
sI4348
Vgrader
p4331
sI4349
Vgraduation
p4332
sI4350
Vgrandso
p4333
sI4351
Vgranny
p4334
sI4352
Vgrass
p4335
sI4353
Vgratin
p4336
sI4354
Vgratuity
p4337
sI4355
Vgreenville
p4338
sI4356
Vgreeters
p4339
sI4357
Vgreeting
p4340
sI4358
Vgrillied
p4341
sI4359
Vgringo
p4342
sI4360
Vgritty
p4343
sI4361
Vgrossly
p4344
sI4362
Vground
p4345
sI4363
Vgroupon
p4346
sI4364
Vgrow
p4347
sI4365
Vgrown
p4348
sI4366
Vgrudge
p4349
sI4367
Vguarana
p4350
sI4368
Vguaranteed
p4351
sI4369
Vguard
p4352
sI4370
Vguessing
p4353
sI4371
Vguns
p4354
sI4372
Vgus
p4355
sI4373
Vgut
p4356
sI4374
Vguts
p4357
sI4375
Vhaddock
p4358
sI4376
Vhaha
p4359
sI4377
Vhaile
p4360
sI4378
Vhalls
p4361
sI4379
Vhandled
p4362
sI4380
Vhangar
p4363
sI4381
Vhangout
p4364
sI4382
Vhappend
p4365
sI4383
Vhappily
p4366
sI4384
Vharbor
p4367
sI4385
Vhardwear
p4368
sI4386
Vharle
p4369
sI4387
Vharvest
p4370
sI4388
Vhashbrowns
p4371
sI4389
Vhashtag
p4372
sI4390
Vhate
p4373
sI4391
Vhates
p4374
sI4392
Vhaul
p4375
sI4393
Vhawthorn
p4376
sI4394
Vhazelnut
p4377
sI4395
Vheadache
p4378
sI4396
Vheaded
p4379
sI4397
Vheartedly
p4380
sI4398
Vheating
p4381
sI4399
Vheck
p4382
sI4400
Vheisse
p4383
sI4401
Vheist
p4384
sI4402
Vhelps
p4385
sI4403
Vhers
p4386
sI4404
Vhershey
p4387
sI4405
Vhibichi
p4388
sI4406
Vhillary
p4389
sI4407
Vhimself
p4390
sI4408
Vhispanic
p4391
sI4409
Vhits
p4392
sI4410
Vhollow
p4393
sI4411
Vholly
p4394
sI4412
Vholy
p4395
sI4413
Vhometown
p4396
sI4414
Vhonesty
p4397
sI4415
Vhong
p4398
sI4416
Vhook
p4399
sI4417
Vhopefully
p4400
sI4418
Vhoping
p4401
sI4419
Vhorderves
p4402
sI4420
Vhorts
p4403
sI4421
Vhosted
p4404
sI4422
Vhostesses
p4405
sI4423
Vhosts
p4406
sI4424
Vhottest
p4407
sI4425
Vhover
p4408
sI4426
Vhr
p4409
sI4427
Vhrs
p4410
sI4428
Vhsband
p4411
sI4429
Vhubris
p4412
sI4430
Vhugger
p4413
sI4431
Vhumble
p4414
sI4432
Vhumiliated
p4415
sI4433
Vhumor
p4416
sI4434
Vhumorous
p4417
sI4435
Vhunter
p4418
sI4436
Vhusban
p4419
sI4437
Vhushpuppies
p4420
sI4438
Vicing
p4421
sI4439
Vignorant
p4422
sI4440
Vignores
p4423
sI4441
Viii
p4424
sI4442
Viirc
p4425
sI4443
Villness
p4426
sI4444
Vima
p4427
sI4445
Vimaginable
p4428
sI4446
Vimpression
p4429
sI4447
Vimproved
p4430
sI4448
Vinappropriate
p4431
sI4449
Vinattentive
p4432
sI4450
Vinbox
p4433
sI4451
Vincapable
p4434
sI4452
Vinconsistant
p4435
sI4453
Vinconsistencies
p4436
sI4454
Vinconsistency
p4437
sI4455
Vindecisive
p4438
sI4456
Vindependence
p4439
sI4457
Vindia
p4440
sI4458
Vindicator
p4441
sI4459
Vinexcusable
p4442
sI4460
Vinfamously
p4443
sI4461
Vinfested
p4444
sI4462
Vinform
p4445
sI4463
Vinformation
p4446
sI4464
Vinjections
p4447
sI4465
Vinjuries
p4448
sI4466
Vinland
p4449
sI4467
Vinmediately
p4450
sI4468
Vinn
p4451
sI4469
Vinsisted
p4452
sI4470
Vinstantly
p4453
sI4471
Vinstructed
p4454
sI4472
Vinsulted
p4455
sI4473
Vintegral
p4456
sI4474
Vinterest
p4457
sI4475
Vinvestigate
p4458
sI4476
Vinviting
p4459
sI4477
Vironic
p4460
sI4478
Virresponsible
p4461
sI4479
Viso
p4462
sI4480
Vj
sI4481
Vjackie
p4463
sI4482
Vjah
p4464
sI4483
Vjalape
p4465
sI4484
Vjan
p4466
sI4485
Vjane
p4467
sI4486
Vjanitor
p4468
sI4487
Vjapan
p4469
sI4488
Vjeans
p4470
sI4489
Vjeepers
p4471
sI4490
Vjellyfish
p4472
sI4491
Vjen
p4473
sI4492
Vjersey
p4474
sI4493
Vjesters
p4475
sI4494
Vjj
p4476
sI4495
Vjobs
p4477
sI4496
Vjoel
p4478
sI4497
Vjohnny
p4479
sI4498
Vjoin
p4480
sI4499
Vjoint
p4481
sI4500
Vjoy
p4482
sI4501
Vjuice
p4483
sI4502
Vjuliana
p4484
sI4503
Vjulie
p4485
sI4504
Vjustifies
p4486
sI4505
Vk
sI4506
Vkale
p4487
sI4507
Vkaraoke
p4488
sI4508
Vkate
p4489
sI4509
Vken
p4490
sI4510
Vki
p4491
sI4511
Vkick
p4492
sI4512
Vkiller
p4493
sI4513
Vkindest
p4494
sI4514
Vkinky
p4495
sI4515
Vkiss
p4496
sI4516
Vknife
p4497
sI4517
Vknives
p4498
sI4518
Vkobe
p4499
sI4519
Vkong
p4500
sI4520
Vkraft
p4501
sI4521
Vkuddos
p4502
sI4522
Vlabeled
p4503
sI4523
Vlacee
p4504
sI4524
Vlacked
p4505
sI4525
Vlamp
p4506
sI4526
Vlandmark
p4507
sI4527
Vlane
p4508
sI4528
Vlargest
p4509
sI4529
Vlaser
p4510
sI4530
Vlaughable
p4511
sI4531
Vlaunching
p4512
sI4532
Vlaurel
p4513
sI4533
Vlauren
p4514
sI4534
Vleah
p4515
sI4535
Vleanest
p4516
sI4536
Vlefted
p4517
sI4537
Vlegendary
p4518
sI4538
Vlemonade
p4519
sI4539
Vlength
p4520
sI4540
Vlengthwise
p4521
sI4541
Vlengua
p4522
sI4542
Vlesson
p4523
sI4543
Vlessons
p4524
sI4544
Vlf
p4525
sI4545
Vlfc
p4526
sI4546
Vlibrettos
p4527
sI4547
Vlical
p4528
sI4548
Vliebe
p4529
sI4549
Vlighting
p4530
sI4550
Vliking
p4531
sI4551
Vlil
p4532
sI4552
Vlime
p4533
sI4553
Vlinen
p4534
sI4554
Vlinguini
p4535
sI4555
Vlistened
p4536
sI4556
Vlite
p4537
sI4557
Vliter
p4538
sI4558
Vliteral
p4539
sI4559
Vlively
p4540
sI4560
Vliverpool
p4541
sI4561
Vlo
p4542
sI4562
Vlocking
p4543
sI4563
Vloga
p4544
sI4564
Vlogigically
p4545
sI4565
Vlogistics
p4546
sI4566
Vloose
p4547
sI4567
Vlord
p4548
sI4568
Vloren
p4549
sI4569
Vlorrrrdddddd
p4550
sI4570
Vlos
p4551
sI4571
Vloses
p4552
sI4572
Vloudddd
p4553
sI4573
Vlouie
p4554
sI4574
Vlouis
p4555
sI4575
Vloveeeeeee
p4556
sI4576
Vlovers
p4557
sI4577
Vloving
p4558
sI4578
Vlower
p4559
sI4579
Vlucy
p4560
sI4580
Vluster
p4561
sI4581
Vlyonnaise
p4562
sI4582
Vmaanger
p4563
sI4583
Vmachinery
p4564
sI4584
Vmad
p4565
sI4585
Vmadison
p4566
sI4586
Vmagisterial
p4567
sI4587
Vmaine
p4568
sI4588
Vmains
p4569
sI4589
Vmainstay
p4570
sI4590
Vmama
p4571
sI4591
Vmammoth
p4572
sI4592
Vmanaged
p4573
sI4593
Vmanchurian
p4574
sI4594
Vmandated
p4575
sI4595
Vmangers
p4576
sI4596
Vmango
p4577
sI4597
Vmanhattan
p4578
sI4598
Vmanners
p4579
sI4599
Vmap
p4580
sI4600
Vmarble
p4581
sI4601
Vmarcus
p4582
sI4602
Vmargarita
p4583
sI4603
Vmarginal
p4584
sI4604
Vmarketing
p4585
sI4605
Vmarry
p4586
sI4606
Vmarsala
p4587
sI4607
Vmart
p4588
sI4608
Vmartin
p4589
sI4609
Vmarvelous
p4590
sI4610
Vmary
p4591
sI4611
Vmassive
p4592
sI4612
Vmatches
p4593
sI4613
Vmaterial
p4594
sI4614
Vmatthews
p4595
sI4615
Vmaybe1
p4596
sI4616
Vmazing
p4597
sI4617
Vmcdonalds
p4598
sI4618
Vmeatball
p4599
sI4619
Vmeatballs
p4600
sI4620
Vmeetings
p4601
sI4621
Vmelissa
p4602
sI4622
Vmelvin
p4603
sI4623
Vmemorial
p4604
sI4624
Vmentor
p4605
sI4625
Vmerts
p4606
sI4626
Vmetallic
p4607
sI4627
Vmetropolitan
p4608
sI4628
Vmexi
p4609
sI4629
Vmgmt
p4610
sI4630
Vmia
p4611
sI4631
Vmichigan
p4612
sI4632
Vmid
p4613
sI4633
Vmien
p4614
sI4634
Vmikes
p4615
sI4635
Vmiles
p4616
sI4636
Vmilitary
p4617
sI4637
Vmilkshakes
p4618
sI4638
Vmiller
p4619
sI4639
Vmimic
p4620
sI4640
Vmimos
p4621
sI4641
Vmindful
p4622
sI4642
Vminor
p4623
sI4643
Vmint
p4624
sI4644
Vmirrin
p4625
sI4645
Vmiscommunication
p4626
sI4646
Vmiserably
p4627
sI4647
Vmishap
p4628
sI4648
Vmishaps
p4629
sI4649
Vmisleading
p4630
sI4650
Vmiso
p4631
sI4651
Vmistakenly
p4632
sI4652
Vmo
p4633
sI4653
Vmockery
p4634
sI4654
Vmoment
p4635
sI4655
Vmoments
p4636
sI4656
Vmomo
p4637
sI4657
Vmomoos
p4638
sI4658
Vmone
p4639
sI4659
Vmonkeys
p4640
sI4660
Vmonotone
p4641
sI4661
Vmonteigo
p4642
sI4662
Vmonthly
p4643
sI4663
Vmoon
p4644
sI4664
Vmortons
p4645
sI4665
Vmotorcoach
p4646
sI4666
Vmoves
p4647
sI4667
Vmozzarella
p4648
sI4668
Vmozzeralla
p4649
sI4669
Vms
p4650
sI4670
Vmuffins
p4651
sI4671
Vmum
p4652
sI4672
Vmumbai
p4653
sI4673
Vmunchies
p4654
sI4674
Vnags
p4655
sI4675
Vnarrow
p4656
sI4676
Vnature
p4657
sI4677
Vnavy
p4658
sI4678
Vneglected
p4659
sI4679
Vnelorea
p4660
sI4680
Vnervous
p4661
sI4681
Vnevermind
p4662
sI4682
Vnewly
p4663
sI4683
Vnfl
p4664
sI4684
Vnicely
p4665
sI4685
Vnicest
p4666
sI4686
Vnickel
p4667
sI4687
Vnieces
p4668
sI4688
Vnigeria
p4669
sI4689
Vnightlife
p4670
sI4690
Vnit
p4671
sI4691
Vnn
p4672
sI4692
Vnomore
p4673
sI4693
Vnonsense
p4674
sI4694
Vnoon
p4675
sI4695
Vnostalgia
p4676
sI4696
Vnotify
p4677
sI4697
Vnotifying
p4678
sI4698
Vnotoriously
p4679
sI4699
Vnovember
p4680
sI4700
Vnowhere
p4681
sI4701
Vnuisance
p4682
sI4702
Vo
sI4703
Voblivious
p4683
sI4704
Vobsessed
p4684
sI4705
Voccasionally
p4685
sI4706
Voccupied
p4686
sI4707
Voccured
p4687
sI4708
Vodds
p4688
sI4709
Vodf
p4689
sI4710
Voffended
p4690
sI4711
Voffensive
p4691
sI4712
Volympics
p4692
sI4713
Vomelettes
p4693
sI4714
Vonwards
p4694
sI4715
Voops
p4695
sI4716
Vopenly
p4696
sI4717
Voperational
p4697
sI4718
Voph
p4698
sI4719
Voptimator
p4699
sI4720
Vorchid
p4700
sI4721
Vordere
p4701
sI4722
Voregano
p4702
sI4723
Vores
p4703
sI4724
Voriginally
p4704
sI4725
Vorleans
p4705
sI4726
Vos
p4706
sI4727
Vourselves
p4707
sI4728
Voutcome
p4708
sI4729
Vouter
p4709
sI4730
Voutrageous
p4710
sI4731
Vouts
p4711
sI4732
Voutweighed
p4712
sI4733
Voverbearing
p4713
sI4734
Vovercharged
p4714
sI4735
Voverlook
p4715
sI4736
Vovers
p4716
sI4737
Voverworked
p4717
sI4738
Vowned
p4718
sI4739
Vpac
p4719
sI4740
Vpaced
p4720
sI4741
Vpackages
p4721
sI4742
Vpackers
p4722
sI4743
Vpained
p4723
sI4744
Vpalate
p4724
sI4745
Vpals
p4725
sI4746
Vpaneras
p4726
sI4747
Vparaded
p4727
sI4748
Vparm
p4728
sI4749
Vpartially
p4729
sI4750
Vparticipating
p4730
sI4751
Vpassengers
p4731
sI4752
Vpastas
p4732
sI4753
Vpastor
p4733
sI4754
Vpastry
p4734
sI4755
Vpath
p4735
sI4756
Vpatios
p4736
sI4757
Vpaycheck
p4737
sI4758
Vpeace
p4738
sI4759
Vpeaches
p4739
sI4760
Vpeaks
p4740
sI4761
Vpeanut
p4741
sI4762
Vpeanuts
p4742
sI4763
Vpear
p4743
sI4764
Vpecan
p4744
sI4765
Vpedo
p4745
sI4766
Vpeel
p4746
sI4767
Vpenalize
p4747
sI4768
Vpending
p4748
sI4769
Vpenguin
p4749
sI4770
Vpenne
p4750
sI4771
Vpennsylvania
p4751
sI4772
Vpeopl
p4752
sI4773
Vpeperoncino
p4753
sI4774
Vpeppar
p4754
sI4775
Vpeppery
p4755
sI4776
Vperiods
p4756
sI4777
Vpermission
p4757
sI4778
Vpersonality
p4758
sI4779
Vpersons
p4759
sI4780
Vpetro
p4760
sI4781
Vpicatta
p4761
sI4782
Vpiccata
p4762
sI4783
Vpickle
p4763
sI4784
Vpicks
p4764
sI4785
Vpickup
p4765
sI4786
Vpicture
p4766
sI4787
Vpictures
p4767
sI4788
Vpies
p4768
sI4789
Vpik
p4769
sI4790
Vpike
p4770
sI4791
Vpikes
p4771
sI4792
Vpink
p4772
sI4793
Vpinky
p4773
sI4794
Vpinpoint
p4774
sI4795
Vpiss
p4775
sI4796
Vpitiful
p4776
sI4797
Vpits
p4777
sI4798
Vpittsburg
p4778
sI4799
Vpizz
p4779
sI4800
Vplanet
p4780
sI4801
Vplans
p4781
sI4802
Vplantines
p4782
sI4803
Vplater
p4783
sI4804
Vpleasers
p4784
sI4805
Vplentiful
p4785
sI4806
Vplugins
p4786
sI4807
Vplush
p4787
sI4808
Vpoached
p4788
sI4809
Vpoints
p4789
sI4810
Vpoir
p4790
sI4811
Vpoisin
p4791
sI4812
Vpoisining
p4792
sI4813
Vpoison
p4793
sI4814
Vpolenta
p4794
sI4815
Vpolic
p4795
sI4816
Vpopovers
p4796
sI4817
Vpopulation
p4797
sI4818
Vposted
p4798
sI4819
Vpotential
p4799
sI4820
Vpotentially
p4800
sI4821
Vpoured
p4801
sI4822
Vpraised
p4802
sI4823
Vprecios
p4803
sI4824
Vpredicament
p4804
sI4825
Vprefect
p4805
sI4826
Vpreference
p4806
sI4827
Vpreferred
p4807
sI4828
Vprepackaged
p4808
sI4829
Vpresentable
p4809
sI4830
Vpresented
p4810
sI4831
Vpressing
p4811
sI4832
Vprevent
p4812
sI4833
Vprez
p4813
sI4834
Vprimarily
p4814
sI4835
Vprint
p4815
sI4836
Vprinted
p4816
sI4837
Vprinter
p4817
sI4838
Vpriority
p4818
sI4839
Vprivilege
p4819
sI4840
Vproactive
p4820
sI4841
Vproblematic
p4821
sI4842
Vprofanity
p4822
sI4843
Vprofession
p4823
sI4844
Vprogram
p4824
sI4845
Vprograms
p4825
sI4846
Vproportions
p4826
sI4847
Vprsc
p4827
sI4848
Vps
p4828
sI4849
Vptomaine
p4829
sI4850
Vpublication
p4830
sI4851
Vpubs
p4831
sI4852
Vpullout
p4832
sI4853
Vpulls
p4833
sI4854
Vpups
p4834
sI4855
Vpurchased
p4835
sI4856
Vpushes
p4836
sI4857
Vpuzza
p4837
sI4858
Vqdoba
p4838
sI4859
Vquanity
p4839
sI4860
Vquarrel
p4840
sI4861
Vquarter
p4841
sI4862
Vque
p4842
sI4863
Vquee
p4843
sI4864
Vquelling
p4844
sI4865
Vqueso
p4845
sI4866
Vquestioned
p4846
sI4867
Vquiet
p4847
sI4868
Vquirky
p4848
sI4869
Vr
sI4870
Vrabbit
p4849
sI4871
Vrabies
p4850
sI4872
Vrachel
p4851
sI4873
Vrang
p4852
sI4874
Vranged
p4853
sI4875
Vranked
p4854
sI4876
Vraspberry
p4855
sI4877
Vrat
p4856
sI4878
Vratchet
p4857
sI4879
Vratings
p4858
sI4880
Vratio
p4859
sI4881
Vraucous
p4860
sI4882
Vreach
p4861
sI4883
Vreached
p4862
sI4884
Vread
p4863
sI4885
Vreads
p4864
sI4886
Vrealizing
p4865
sI4887
Vrear
p4866
sI4888
Vreassuring
p4867
sI4889
Vreception
p4868
sI4890
Vrecieve
p4869
sI4891
Vrecipe
p4870
sI4892
Vrecord
p4871
sI4893
Vrecovering
p4872
sI4894
Vrectify
p4873
sI4895
Vreds
p4874
sI4896
Vreduce
p4875
sI4897
Vreeking
p4876
sI4898
Vreferred
p4877
sI4899
Vrefilling
p4878
sI4900
Vregard
p4879
sI4901
Vregardless
p4880
sI4902
Vreisling
p4881
sI4903
Vrelated
p4882
sI4904
Vrelative
p4883
sI4905
Vremaining
p4884
sI4906
Vremarkable
p4885
sI4907
Vreminded
p4886
sI4908
Vrenegade
p4887
sI4909
Vrenovation
p4888
sI4910
Vreorder
p4889
sI4911
Vreply
p4890
sI4912
Vreport
p4891
sI4913
Vrepresented
p4892
sI4914
Vresolution
p4893
sI4915
Vresort
p4894
sI4916
Vrespectful
p4895
sI4917
Vrespond
p4896
sI4918
Vresponses
p4897
sI4919
Vresponsibility
p4898
sI4920
Vresponsible
p4899
sI4921
Vrestaruant
p4900
sI4922
Vrestroom
p4901
sI4923
Vresturaunt
p4902
sI4924
Vretail
p4903
sI4925
Vretrained
p4904
sI4926
Vretrieve
p4905
sI4927
Vreviewer
p4906
sI4928
Vrevisit
p4907
sI4929
Vrevolution
p4908
sI4930
Vrewards
p4909
sI4931
Vri
p4910
sI4932
Vrich
p4911
sI4933
Vridden
p4912
sI4934
Vringer
p4913
sI4935
Vrink
p4914
sI4936
Vrisky
p4915
sI4937
Vroaches
p4916
sI4938
Vrobin
p4917
sI4939
Vrobotic
p4918
sI4940
Vrocked
p4919
sI4941
Vrogan
p4920
sI4942
Vromain
p4921
sI4943
Vroman
p4922
sI4944
Vromantic
p4923
sI4945
Vrooste
p4924
sI4946
Vroosters
p4925
sI4947
Vrose
p4926
sI4948
Vrotating
p4927
sI4949
Vrough
p4928
sI4950
Vroughly
p4929
sI4951
Vrowdy
p4930
sI4952
Vroyalty
p4931
sI4953
Vrubber
p4932
sI4954
Vruining
p4933
sI4955
Vrules
p4934
sI4956
Vrunner
p4935
sI4957
Vruns
p4936
sI4958
Vrushing
p4937
sI4959
Vrusty
p4938
sI4960
Vruths
p4939
sI4961
Vsabes
p4940
sI4962
Vsad
p4941
sI4963
Vsalami
p4942
sI4964
Vsalisbury
p4943
sI4965
Vsaltier
p4944
sI4966
Vsaltimbocca
p4945
sI4967
Vsamir
p4946
sI4968
Vsammie
p4947
sI4969
Vsandwichs
p4948
sI4970
Vsangria
p4949
sI4971
Vsasauge
p4950
sI4972
Vsatan
p4951
sI4973
Vsatiated
p4952
sI4974
Vsavannah
p4953
sI4975
Vscattered
p4954
sI4976
Vscenery
p4955
sI4977
Vschnapps
p4956
sI4978
Vscrambling
p4957
sI4979
Vscreaming
p4958
sI4980
Vscrewing
p4959
sI4981
Vsear
p4960
sI4982
Vsearch
p4961
sI4983
Vsearched
p4962
sI4984
Vseared
p4963
sI4985
Vsearing
p4964
sI4986
Vseasonings
p4965
sI4987
Vseconds
p4966
sI4988
Vsecrets
p4967
sI4989
Vsections
p4968
sI4990
Vselect
p4969
sI4991
Vsemi
p4970
sI4992
Vsensitive
p4971
sI4993
Vsentimental
p4972
sI4994
Vsesame
p4973
sI4995
Vsession
p4974
sI4996
Vshabby
p4975
sI4997
Vshadowing
p4976
sI4998
Vshaped
p4977
sI4999
Vshared
p4978
sI5000
Vsharly
p4979
sI5001
Vsharpened
p4980
sI5002
Vshaved
p4981
sI5003
Vshawarma
p4982
sI5004
Vsheet
p4983
sI5005
Vshelby
p4984
sI5006
Vshellfish
p4985
sI5007
Vshes
p4986
sI5008
Vship
p4987
sI5009
Vshirley
p4988
sI5010
Vshocker
p4989
sI5011
Vshooing
p4990
sI5012
Vshoot
p4991
sI5013
Vshoping
p4992
sI5014
Vshorter
p4993
sI5015
Vshorthanded
p4994
sI5016
Vshout
p4995
sI5017
Vshtick
p4996
sI5018
Vsicilian
p4997
sI5019
Vsigned
p4998
sI5020
Vsigns
p4999
sI5021
Vsimilarly
p5000
sI5022
Vsingles
p5001
sI5023
Vsink
p5002
sI5024
Vsinking
p5003
sI5025
Vsip
p5004
sI5026
Vsister
p5005
sI5027
Vsits
p5006
sI5028
Vsizable
p5007
sI5029
Vsizeable
p5008
sI5030
Vsizes
p5009
sI5031
Vskated
p5010
sI5032
Vskater
p5011
sI5033
Vskates
p5012
sI5034
Vskewers
p5013
sI5035
Vskimp
p5014
sI5036
Vsky
p5015
sI5037
Vslap
p5016
sI5038
Vslaw
p5017
sI5039
Vsleeping
p5018
sI5040
Vslider
p5019
sI5041
Vslim
p5020
sI5042
Vslimey
p5021
sI5043
Vslowing
p5022
sI5044
Vslowly
p5023
sI5045
Vsmaller
p5024
sI5046
Vsmarter
p5025
sI5047
Vsmelliest
p5026
sI5048
Vsmelling
p5027
sI5049
Vsmg
p5028
sI5050
Vsmoke
p5029
sI5051
Vsmokes
p5030
sI5052
Vsmothered
p5031
sI5053
Vsmug
p5032
sI5054
Vsnapper
p5033
sI5055
Vsneek
p5034
sI5056
Vsnippy
p5035
sI5057
Vsoaked
p5036
sI5058
Vsober
p5037
sI5059
Vsocialized
p5038
sI5060
Vsocially
p5039
sI5061
Vsocials
p5040
sI5062
Vsold
p5041
sI5063
Vsolely
p5042
sI5064
Vsolution
p5043
sI5065
Vsomebody
p5044
sI5066
Vsomethin
p5045
sI5067
Vsomw
p5046
sI5068
Vsong
p5047
sI5069
Vsooner
p5048
sI5070
Vsooooo
p5049
sI5071
Vsorbet
p5050
sI5072
Vsorted
p5051
sI5073
Vsouthend
p5052
sI5074
Vspades
p5053
sI5075
Vspanish
p5054
sI5076
Vsparklers
p5055
sI5077
Vspeaker
p5056
sI5078
Vspeed
p5057
sI5079
Vspike
p5058
sI5080
Vspotime
p5059
sI5081
Vspouse
p5060
sI5082
Vspring
p5061
sI5083
Vsprites
p5062
sI5084
Vspud
p5063
sI5085
Vsquared
p5064
sI5086
Vsquash
p5065
sI5087
Vsqueezing
p5066
sI5088
Vsquid
p5067
sI5089
Vst
p5068
sI5090
Vstalls
p5069
sI5091
Vstaple
p5070
sI5092
Vstare
p5071
sI5093
Vstaring
p5072
sI5094
Vstays
p5073
sI5095
Vstellar
p5074
sI5096
Vstev
p5075
sI5097
Vsteven
p5076
sI5098
Vstoked
p5077
sI5099
Vstomachs
p5078
sI5100
Vstops
p5079
sI5101
Vstorm
p5080
sI5102
Vstraightened
p5081
sI5103
Vstrange
p5082
sI5104
Vstress
p5083
sI5105
Vstretch
p5084
sI5106
Vstricken
p5085
sI5107
Vstrip
p5086
sI5108
Vstruggles
p5087
sI5109
Vstudent
p5088
sI5110
Vstudio
p5089
sI5111
Vstuffy
p5090
sI5112
Vstunk
p5091
sI5113
Vstyles
p5092
sI5114
Vsubstance
p5093
sI5115
Vsuccotash
p5094
sI5116
Vsucked
p5095
sI5117
Vsuckers
p5096
sI5118
Vsucks
p5097
sI5119
Vsuggested
p5098
sI5120
Vsuggesting
p5099
sI5121
Vsundae
p5100
sI5122
Vsundays
p5101
sI5123
Vsuperior
p5102
sI5124
Vsupplier
p5103
sI5125
Vsupreme
p5104
sI5126
Vsupurb
p5105
sI5127
Vsurgery
p5106
sI5128
Vsurprisingly
p5107
sI5129
Vsurrounding
p5108
sI5130
Vsweater
p5109
sI5131
Vsweaty
p5110
sI5132
Vsweeping
p5111
sI5133
Vsweetest
p5112
sI5134
Vswimwear
p5113
sI5135
Vswirl
p5114
sI5136
Vswiveled
p5115
sI5137
Vswordfish
p5116
sI5138
Vtab
p5117
sI5139
Vtad
p5118
sI5140
Vtail
p5119
sI5141
Vtails
p5120
sI5142
Vtaj
p5121
sI5143
Vtakeovers
p5122
sI5144
Vtangerine
p5123
sI5145
Vtangy
p5124
sI5146
Vtank
p5125
sI5147
Vtarget
p5126
sI5148
Vtartar
p5127
sI5149
Vtartare
p5128
sI5150
Vtasteful
p5129
sI5151
Vtasteless
p5130
sI5152
Vtastier
p5131
sI5153
Vtaststy
p5132
sI5154
Vtater
p5133
sI5155
Vtaylor
p5134
sI5156
Vtears
p5135
sI5157
Vteenagers
p5136
sI5158
Vteens
p5137
sI5159
Vteeth
p5138
sI5160
Vtelevision
p5139
sI5161
Vtemple
p5140
sI5162
Vtemples
p5141
sI5163
Vtent
p5142
sI5164
Vtequila
p5143
sI5165
Vterrence
p5144
sI5166
Vterrific
p5145
sI5167
Vteryaki
p5146
sI5168
Vtestament
p5147
sI5169
Vtexan
p5148
sI5170
Vtext
p5149
sI5171
Vtextured
p5150
sI5172
Vtgfridays
p5151
sI5173
Vthanked
p5152
sI5174
Vthel
p5153
sI5175
Vthier
p5154
sI5176
Vthinner
p5155
sI5177
Vthirdly
p5156
sI5178
Vthng
p5157
sI5179
Vthoughtful
p5158
sI5180
Vthoughtfully
p5159
sI5181
Vthrew
p5160
sI5182
Vthrown
p5161
sI5183
Vtickets
p5162
sI5184
Vtidy
p5163
sI5185
Vtied
p5164
sI5186
Vtier
p5165
sI5187
Vtil
p5166
sI5188
Vtini
p5167
sI5189
Vtipped
p5168
sI5190
Vtlc
p5169
sI5191
Vtoasting
p5170
sI5192
Vtoda
p5171
sI5193
Vtoddler
p5172
sI5194
Vtogethers
p5173
sI5195
Vtokyo
p5174
sI5196
Vtom
p5175
sI5197
Vtongue
p5176
sI5198
Vtonkatsu
p5177
sI5199
Vtonkutsu
p5178
sI5200
Vtony
p5179
sI5201
Vtool
p5180
sI5202
Vtooth
p5181
sI5203
Vtoothless
p5182
sI5204
Vtopper
p5183
sI5205
Vtorn
p5184
sI5206
Vtosha
p5185
sI5207
Vtouches
p5186
sI5208
Vtouching
p5187
sI5209
Vtouchs
p5188
sI5210
Vtowed
p5189
sI5211
Vtowel
p5190
sI5212
Vtowne
p5191
sI5213
Vtracker
p5192
sI5214
Vtracking
p5193
sI5215
Vtrader
p5194
sI5216
Vtraffic
p5195
sI5217
Vtrainee
p5196
sI5218
Vtranslate
p5197
sI5219
Vtraveled
p5198
sI5220
Vtreating
p5199
sI5221
Vtreats
p5200
sI5222
Vtree
p5201
sI5223
Vtrek
p5202
sI5224
Vtremendously
p5203
sI5225
Vtrh
p5204
sI5226
Vtrim
p5205
sI5227
Vtripadvisor
p5206
sI5228
Vtrips
p5207
sI5229
Vtrista
p5208
sI5230
Vtropical
p5209
sI5231
Vtrouble
p5210
sI5232
Vtrump
p5211
sI5233
Vtruth
p5212
sI5234
Vtucked
p5213
sI5235
Vturning
p5214
sI5236
Vturquoise
p5215
sI5237
Vtuscan
p5216
sI5238
Vtwc
p5217
sI5239
Vtwenties
p5218
sI5240
Vtwin
p5219
sI5241
Vtxt
p5220
sI5242
Vtypes
p5221
sI5243
Vudon
p5222
sI5244
Vultimate
p5223
sI5245
Vunappetizing
p5224
sI5246
Vunauthentic
p5225
sI5247
Vunbiased
p5226
sI5248
Vuncajun
p5227
sI5249
Vunderstandably
p5228
sI5250
Vunderstated
p5229
sI5251
Vunderstood
p5230
sI5252
Vunderwent
p5231
sI5253
Vunderwhelmingly
p5232
sI5254
Vunfamiliar
p5233
sI5255
Vunfortunatly
p5234
sI5256
Vunicorn
p5235
sI5257
Vunintelligent
p5236
sI5258
Vuninterested
p5237
sI5259
Vunit
p5238
sI5260
Vunkempt
p5239
sI5261
Vunorganization
p5240
sI5262
Vunprepared
p5241
sI5263
Vunreasonable
p5242
sI5264
Vunsafe
p5243
sI5265
Vuntill
p5244
sI5266
Vuntouched
p5245
sI5267
Vunusual
p5246
sI5268
Vunwillingness
p5247
sI5269
Vunwind
p5248
sI5270
Vupbeat
p5249
sI5271
Vupper
p5250
sI5272
Vuppty
p5251
sI5273
Vurgency
p5252
sI5274
Vuses
p5253
sI5275
Vutmost
p5254
sI5276
Vvaca
p5255
sI5277
Vvacation
p5256
sI5278
Vvaccine
p5257
sI5279
Vvanilla
p5258
sI5280
Vvarieties
p5259
sI5281
Vvarious
p5260
sI5282
Vve
p5261
sI5283
Vvegetarians
p5262
sI5284
Vvehicle
p5263
sI5285
Vvelvet
p5264
sI5286
Vventured
p5265
sI5287
Vversa
p5266
sI5288
Vversion
p5267
sI5289
Vvertically
p5268
sI5290
Vvey
p5269
sI5291
Vvhd
p5270
sI5292
Vvibes
p5271
sI5293
Vvice
p5272
sI5294
Vvida
p5273
sI5295
Vvie
p5274
sI5296
Vvinagarette
p5275
sI5297
Vvinyl
p5276
sI5298
Vvip
p5277
sI5299
Vvirgin
p5278
sI5300
Vvisit8ng
p5279
sI5301
Vvista
p5280
sI5302
Vvoucher
p5281
sI5303
Vwad
p5282
sI5304
Vwagyu
p5283
sI5305
Vwal
p5284
sI5306
Vwallets
p5285
sI5307
Vwanton
p5286
sI5308
Vwarmed
p5287
sI5309
Vwarmth
p5288
sI5310
Vwarner
p5289
sI5311
Vwasteful
p5290
sI5312
Vwatered
p5291
sI5313
Vwaters
p5292
sI5314
Vways
p5293
sI5315
Vweb
p5294
sI5316
Vwed
p5295
sI5317
Vwedge
p5296
sI5318
Vweekly
p5297
sI5319
Vweesie
p5298
sI5320
Vweight
p5299
sI5321
Vweirdo
p5300
sI5322
Vwerent
p5301
sI5323
Vwh
p5302
sI5324
Vwhaat
p5303
sI5325
Vwherever
p5304
sI5326
Vwhiskey
p5305
sI5327
Vwhooooooo
p5306
sI5328
Vwifes
p5307
sI5329
Vwilted
p5308
sI5330
Vwinter
p5309
sI5331
Vwished
p5310
sI5332
Vwithered
p5311
sI5333
Vwits
p5312
sI5334
Vwolf
p5313
sI5335
Vwon
p5314
sI5336
Vwoods
p5315
sI5337
Vworn
p5316
sI5338
Vworried
p5317
sI5339
Vworthwhile
p5318
sI5340
Vwrap
p5319
sI5341
Vwrapping
p5320
sI5342
Vwritten
p5321
sI5343
Vwurstplatte
p5322
sI5344
Vyall
p5323
sI5345
Vyea
p5324
sI5346
Vyell
p5325
sI5347
Vyellowfin
p5326
sI5348
Vyorker
p5327
sI5349
Vyoungest
p5328
sI5350
Vyoure
p5329
sI5351
Vyours
p5330
sI5352
Vyr
p5331
sI5353
Vyum
p5332
sI5354
Vyumm
p5333
sI5355
Vyup
p5334
sI5356
Vzan
p5335
sI5357
Vziosks
p5336
sI5358
Vacoustics
p5337
sI5359
Vanyway
p5338
sI5360
Vbuffoon
p5339
sI5361
Vcarried
p5340
sI5362
Vcussing
p5341
sI5363
Vcustom
p5342
sI5364
Vequals
p5343
sI5365
Vexempt
p5344
sI5366
Vidiotic
p5345
sI5367
Vmismanagement
p5346
sI5368
Vmooresville
p5347
sI5369
Vpractically
p5348
sI5370
Vpretend
p5349
sI5371
Vsometime
p5350
sI5372
Vstaffing
p5351
sI5373
Vstructure
p5352
sI5374
Vtaller
p5353
sI5375
Vtolerance
p5354
sI5376
Vubrecognize
p5355
sI5377
Vutter
p5356
ss.